(dp0
I1120256
S'CCOC(=O)C(NC(C)=O)C(=O)O'
p1
sI1117867
S'Nc1nc(=O)c2ncc(C(=O)O)nc2[nH]1'
p2
sI1089222
S'NC(=O)NC(=O)c1nccnc1C(=O)O'
p3
sI1095692
S'CCn1c(C)nc([N+](=O)[O-])c1C(=O)O'
p4
sI1536857
S'CC1(C(=O)O)CCCN1C(=O)c1ccco1'
p5
sI90128
S'O=C(O)C(O)c1ccco1'
p6
sI1511441
S'N#CCCC(CC(=O)C(=O)[O-])C(=O)[O-]'
p7
sI778259
S'CCC(N)(C(=O)O)C(C)C'
p8
sI321198
S'NCC1(C(=O)O)CC12CCCC2'
p9
sI595994
S'O=C(O)CCC1OC(O)C(O)C(O)C1O'
p10
sI515759
S'O=C(O)CC1CC2CCC1C2'
p11
sI176157
S'O=C(O)c1nc2c(O)nc3cc(-n4cnnc4)ccc3n2n1'
p12
sI851998
S'O=C(O)c1cnn2cc(-c3[nH]ncc3[N+](=O)[O-])cnc12'
p13
sI628769
S'O=C(O)CC(C(=O)O)N1C(=O)C2COCC2C1=O'
p14
sI1628195
S'NCC(CCCCCC(=O)O)=NO'
p15
sI200741
S'COCc1nc(N(C)C)ncc1C(=O)O'
p16
sI378896
S'Nc1ncc(C(=O)O)c(-c2c[nH]c3ccccc32)n1'
p17
sI223653
S'O=C(O)Cn1ccc(C(=O)c2ccc(O)cc2)c1'
p18
sI1589291
S'Cc1cc(C(=O)O)c2ccc3[nH]ccc3c2n1'
p19
sI755758
S'CCn1nnc(C(=O)O)c1C(=O)O'
p20
sI1288240
S'C#CCNC(=O)CCC(N)C(=O)O'
p21
sI733234
S'O=C(O)Cn1ncc2c1-c1ccoc1CC2'
p22
sI158387
S'CC1C(C(=O)O)C1C(C)(N)C(=O)O'
p23
sI714807
S'NC(Cc1cn(CC(=O)O)nn1)C(=O)O'
p24
sI215096
S'N#Cc1ccc(NC(=O)C(N)C(=O)O)cc1'
p25
sI753722
S'CCc1nc2ccccc2c(C(=O)O)c1C'
p26
sI1312834
S'O=C(O)c1cnc2[nH]ccn2c1=O'
p27
sI270403
S'O=C(O)Cc1ccc(Cn2cccn2)cc1'
p28
sI1493060
S'CC(C)(C(=O)O)c1c[nH]c2ccccc21'
p29
sI235590
S'NC(C(=O)O)c1nn[nH]n1'
p30
sI485447
S'CC1(C)N(O)C(C(=O)O)=[N+]([O-])C1(C)C'
p31
sI1321032
S'O=C(O)C12C=CC(C1)c1ccccc12'
p32
sI215113
S'C=CC(=O)N1c2ccccc2CC1C(=O)O'
p33
sI198730
S'NC(CC(O)c1cccc(O)c1)C(=O)O'
p34
sI890551
S'O=C([O-])c1cc([N+](=O)[O-])ccc1Nc1ccccc1'
p35
sI1095757
S'O=C(O)CC1NCCc2ccccc21'
p36
sI1524749
S'O=C(O)c1ccnc(CO)c1O'
p37
sI462930
S'O=C(O)C1CC(=O)Nc2ccccc21'
p38
sI1304660
S'CC(Cc1ccc2c(c1)OCO2)C(=O)O'
p39
sI695310
S'O=C(O)c1conc1O'
p40
sI1308759
S'Cc1n[nH]c2c(C(=O)O)c(C)nc(=O)n12'
p41
sI1302620
S'O=C(O)CC12C3C4C5C3C1C5C42'
p42
sI1307322
S'COc1ccc(C#CC(=O)O)c(OC)c1'
p43
sI143454
S'O=C(O)CCc1c(O)ccc2ccccc21'
p44
sI436321
S'C=CCn1cc(C(=O)O)nn1'
p45
sI71355
S'C=C(c1ccccc1)C(O)C(=O)O'
p46
sI120933
S'O=C(O)CC12CNC1CCCC2'
p47
sI486076
S'O=C(O)c1cccc(NC(=O)c2nc[nH]n2)c1'
p48
sI995436
S'CCOC(=O)C1=C(C)NC(=O)C1CC(=O)O'
p49
sI508015
S'Nc1ccnc2c(C(=O)O)cc(O)cc12'
p50
sI1292400
S'CNC(=O)CN(CC(=O)O)C(=O)NC'
p51
sI1040744
S'CCc1nc(C)ccc1OCC(=O)O'
p52
sI581801
S'CC(=CC1=CC(=O)c2ccccc2C1=O)C(=O)O'
p53
sI1340777
S'O=C([O-])Cn1ccc(=O)c2c([N+](=O)[O-])cccc21'
p54
sI202872
S'NC1(C(=O)O)CCc2c1cccc2C(=O)O'
p55
sI81634
S'NCC(CC(=O)O)c1ccc(O)cc1'
p56
sI1431674
S'Cc1n[nH]c(C(=O)O)c1Cc1ccc(C#N)cc1'
p57
sI1351805
S'O=C(O)c1cc(=O)[nH]c2c1CCC2'
p58
sI183317
S'O=C(O)C=CC1CCNCC1'
p59
sI25280
S'N=C(N)c1ccc(CC(=O)O)[nH]1'
p60
sI475267
S'COc1c(O)ccc(C=CC(=O)O)c1[N+](=O)[O-]'
p61
sI1042567
S'Nc1ccc2[nH]c(CCCC(=O)O)nc2c1'
p62
sI370824
S'Cc1cccc(C2(C)OC(C(=O)O)=CC2=O)c1'
p63
sI694636
S'O=C(O)c1cc(O)c2ccccc2c1O'
p64
sI1351818
S'CCOc1cc(C(=O)O)cc(OCC)[n+]1[O-]'
p65
sI67725
S'CC(=CC(=O)c1ccc(C)cc1)C(=O)O'
p66
sI688270
S'CC(NC=O)C(=O)O'
p67
sI129169
S'CC(N)(Cc1cccc(C(=O)O)c1)C(=O)O'
p68
sI871990
S'Cc1cc(=O)oc(C(=O)O)c1'
p69
sI1144981
S'O=C(O)CCCCc1ncc[nH]1'
p70
sI22678
S'O=C(O)c1cn2c(n1)c(O)nc1c2C(=O)c2ccccc2-1'
p71
sI1314967
S'O=C(O)C1CC2C3CCC2C1C3=O'
p72
sI685371
S'O=C(O)c1cccc(C2=CC(=O)C=CC2=O)c1'
p73
sI1144988
S'O=C(O)C=CCCc1c[nH]cn1'
p74
sI657568
S'NC1C=C(CC(=O)O)C(=O)C1'
p75
sI1420656
S'CC[N+](CC)(CC)CC(=O)[O-]'
p76
sI319650
S'COc1cc2c(cc1O)C(=O)CC(C(=O)O)O2'
p77
sI378566
S'C=CC(C(=O)O)C(O)C(=O)O'
p78
sI1489062
S'CC(=CC=CC(C)(C)O)C(=O)O'
p79
sI1378471
S'O=C([O-])CC1(CO)CCCCC1'
p80
sI831656
S'COc1ccc(C(=O)O)nc1C'
p81
sI700585
S'COc1c2ccoc2c(N)c(O)c1C(=O)O'
p82
sI257315
S'COC(=O)CCNC(=O)C(N)CC(=O)O'
p83
sI378567
S'O=C(O)C(=CCCO)C(O)C(=O)O'
p84
sI141484
S'C=CC(N)CCC(=O)O'
p85
sI1161390
S'O=C([O-])c1cccc(-c2ccc(C=C[N+](=O)[O-])o2)c1'
p86
sI1089711
S'Cc1cc(C)n(-c2cccc(C(=O)O)c2)n1'
p87
sI1294512
S'CN(C)C1(C(=O)O)CC1'
p88
sI35528
S'NC(C(=O)O)C(O)C(O)C(=O)O'
p89
sI1335890
S'O=C(O)c1cccc2cc[nH]c21'
p90
sI1462453
S'O=C(O)C1CCOC1'
p91
sI956598
S'O=C(O)C1=CC(c2ccc([N+](=O)[O-])cc2)NC(=O)N1'
p92
sI103796
S'O=C(O)c1cn2ccncc2n1'
p93
sI704698
S'C=C(C(=O)O)C(O)C(O)CO'
p94
sI196797
S'NC(C(=O)O)C(O)(CC(=O)O)C(=O)O'
p95
sI852159
S'COC(=O)c1ccc(NCCC(=O)O)cc1'
p96
sI182464
S'O=C(O)c1c[nH]c(-c2ncc[nH]2)n1'
p97
sI1300673
S'C=C1C(=O)C2(C)OC2(C)C1C(=O)O'
p98
sI55490
S'O=C(O)C=C1CCCC1'
p99
sI771105
S'Nc1cc(C(=O)O)ccc1Nc1ccccc1'
p100
sI88265
S'CC1OC(Nc2ccccc2)=C(C(=O)O)C1=O'
p101
sI1530060
S'CC1(C(=O)O)CC1C(N)C(=O)O'
p102
sI92367
S'CC=CCC(CC(N)C(=O)O)C(=O)O'
p103
sI4304
S'NC(Cc1cc([N+](=O)[O-])cc([N+](=O)[O-])c1O)C(=O)O'
p104
sI1175762
S'O=C(O)C(O)=CC(=O)c1cc2ccccc2o1'
p105
sI102435
S'O=C(O)CCC(C(=O)O)C(=O)NO'
p106
sI1427672
S'CN(C)N(C)C(=O)CCC(=O)O'
p107
sI958681
S'Cc1cc(=O)c(C(=O)O)nn1-c1ccccc1[N+](=O)[O-]'
p108
sI227547
S'C=C1CC(NCC)C(C(=O)O)C1'
p109
sI794844
S'N=c1[nH]c2nn(-c3ccc(C(=O)O)cc3)nc2c(=N)[nH]1'
p110
sI604381
S'Cc1cccc(C)c1OCCC(=O)O'
p111
sI1378530
S'O=C(O)C(O)C(O)C(=O)Oc1cccnc1'
p112
sI284900
S'CC(=CC(=O)[O-])CO'
p113
sI311525
S'C=C1C(=O)C2(C(=O)O)CCC1C2(C)C'
p114
sI588008
S'O=C(O)Cn1cnc2nc3n(c2c1=O)CCC3'
p115
sI391401
S'NC(C(=O)O)c1cnn(O)c1CC1CC1'
p116
sI1302762
S'CNC1(C(=O)O)CC1'
p117
sI1083773
S'O=C(O)C1OCC2(CO1)COC(C(=O)O)OC2'
p118
sI486339
S'Cc1oc2cc(C(=O)O)[nH]c2c1C'
p119
sI94454
S'CCN1CC(N)(C(=O)O)CC1C(=O)O'
p120
sI86263
S'Cc1onc2c1c(C)nn(CC(=O)O)c2=O'
p121
sI4347
S'NC1(C(=O)O)COC2C(C(=O)O)C21'
p122
sI1327356
S'COC(=O)C12C3C4C1C1C2C3C41C(=O)O'
p123
sI1121008
S'CCN(CC(=O)O)C(=O)c1cccnc1'
p124
sI1218815
S'COc1cccc2c1OCC(C(=O)O)C2'
p125
sI227712
S'Cc1c(O)c(=O)ccn1C(CO)C(=O)O'
p126
sI133379
S'COC1=CC2CC(=O)N(C2)C1C(=O)O'
p127
sI12548
S'O=C(O)c1cn2c(n1)COc1ccccc1-2'
p128
sI1286406
S'Cc1cc2ncn(CC(=O)O)c2cc1C'
p129
sI59658
S'O=C(O)C(O)=C(O)C(=O)O'
p130
sI989453
S'CC(C)=C1C2CC2C2C(C(=O)O)C12'
p131
sI27011
S'N=C(NCCN)NCC(=O)O'
p132
sI1583380
S'O=C([O-])C1=CC(O)CC1'
p133
sI483606
S'CC1(C)C=Cc2cc(C(=O)O)ccc2O1'
p134
sI189145
S'O=C(O)CCN=CC1C(=O)NC(=O)NC1=O'
p135
sI336350
S'O=C(O)CCC(=O)c1ccc(C#CCO)cc1'
p136
sI278814
S'O=Cc1ccc(CO)n1CCCC(=O)O'
p137
sI262432
S'O=C(O)CCC(=O)N1CCCC1=O'
p138
sI178465
S'CC1(C(=O)O)CC2=CC(=O)C(O)=CC2=N1'
p139
sI190756
S'O=CO'
p140
sI469286
S'NC(Cn1c(=O)[nH]c(=O)c2ccccc21)C(=O)O'
p141
sI676135
S'Cc1ccn[n+](CCCC(=O)O)c1N'
p142
sI137513
S'Cc1oc(C2NCC(O)C2O)cc1C(=O)O'
p143
sI1268010
S'O=C(O)CC1CC(c2ccc(O)cc2)=NO1'
p144
sI1527395
S'O=C([O-])C=Cc1cccc(C(=O)[O-])c1'
p145
sI702767
S'CC1CN(CC(N)C(=O)O)C(=O)NC1=O'
p146
sI27016
S'NN=C(NCC(=O)O)NNC(N)=O'
p147
sI26930
S'CC(C)=NNC(=N)NNCC(=O)O'
p148
sI1032500
S'NNc1nccc(Nc2ccccc2C(=O)O)n1'
p149
sI1429813
S'CC12OOC(C)(OO1)C2CCC(=O)O'
p150
sI26935
S'Nc1nccn1NCC(=O)O'
p151
sI18060
S'NC(CC(=O)O)C(=O)N1CCCC1'
p152
sI971069
S'CC(O)C(=O)NN=Cc1ccccc1C(=O)O'
p153
sI10559
S'O=C(O)Cc1cc(=O)oc2ccc3ccccc3c12'
p154
sI680260
S'O=C(O)COC(C(=O)O)C(O)C(=O)O'
p155
sI188741
S'CCC=C(CC)C(=O)O'
p156
sI1272137
S'O=C([O-])C=CCCO'
p157
sI27442
S'CN(N=CC(=O)O)C(=N)N'
p158
sI1120589
S'NC(=O)NC(=O)C1CCCCC1C(=O)O'
p159
sI592208
S'O=C(O)CCC(=O)NC(CC(=O)O)C(=O)O'
p160
sI903509
S'CC(C)CNC(=O)O'
p161
sI1618262
S'O=C(O)CNC(=O)c1c(=O)nc2ccccn2c1O'
p162
sI1450327
S'O=C(O)CCC1CNc2cccc(O)c21'
p163
sI1565559
S'O=C([O-])CCC(=O)C1CO1'
p164
sI708955
S'NCc1cn(-c2ccc(C(=O)O)cc2)nn1'
p165
sI432478
S'CC(C)CC(C[N+](=O)[O-])C(=O)O'
p166
sI125279
S'CCC(C(N)=O)(C(=O)O)c1ccccc1'
p167
sI789376
S'O=C(O)c1ccc(Cn2ccc3ccccc32)o1'
p168
sI112995
S'Nc1nc(CC(=O)O)c[nH]1'
p169
sI1175910
S'N#Cc1cccc(C(=O)C=C(O)C(=O)O)c1'
p170
sI1093992
S'Nc1n[nH]c(CO)n1.O=C(O)CO'
p171
sI340493
S'CCCCc1nc(O)c(O)c(C(=O)O)n1'
p172
sI1081049
S'Cn1nccc1NC(=O)COCC(=O)O'
p173
sI37607
S'O=C(O)C1CC(CO)NC(=O)N1'
p174
sI995692
S'O=C(O)CCN1CCc2ccccc21'
p175
sI24941
S'CCc1cc(O)nc(NCCC(=O)O)n1'
p176
sI287088
S'O=C(O)CNC(=O)CNC(=O)c1cc(O)nc(O)n1'
p177
sI117105
S'C[N+]1([O-])C(C(=O)O)CCCC1C(=O)O'
p178
sI57716
S'NC(C(=O)O)C12CC(C(=O)O)(C1)C2'
p179
sI145782
S'O=C(O)COc1ccc2[nH]c3nc(O)nc-3cc2c1'
p180
sI78200
S'O=C(O)CCCOc1ccc2c(c1)C(=O)NC2=O'
p181
sI147833
S'NC(Cc1c[nH]cn1)C(=O)NCC(=O)O'
p182
sI2429
S'COC1=CC(=CC(=O)C(=O)O)OC(O)=C1'
p183
sI338302
S'CC(=O)NC1NCC(C(=O)O)C(O)C1O'
p184
sI256383
S'CC(NC(=O)CCN)C(=O)O'
p185
sI360832
S'COc1cc(OC)c2ncc(C(=O)O)c(O)c2c1'
p186
sI70017
S'O=C(O)C=CC=Cc1cccc2cncn21'
p187
sI1603971
S'C[n+]1cn(CC(=O)O)c2nc(N)nc([O-])c21'
p188
sI715144
S'COc1ccc2[nH]cc(C(=O)C(=O)O)c2c1'
p189
sI893321
S'CC1(C)CC(=O)CC(=NCC(=O)O)C1'
p190
sI997772
S'Cc1ccnn1C(C)C(=O)O'
p191
sI178573
S'O=C(O)C(=O)C=C(O)c1ccnc2ccccc21'
p192
sI27022
S'NN=C(NN)NC(C(=O)O)c1ccccc1'
p193
sI1323075
S'CC=C1CNC1C(=O)O'
p194
sI1225108
S'Cc1ccn(CC(C)C(=O)O)n1'
p195
sI709014
S'O=C(O)C(O)=CC(=O)c1c[nH]c2cccc(O)c12'
p196
sI1610137
S'[NH3+]C(CO)(CO)C(=O)[O-]'
p197
sI704921
S'CCn1cc(C(=O)[O-])c(=O)c2ccc(C)nc21'
p198
sI1610138
S'O=C([O-])C12CCC(CC1)[NH2+]2'
p199
sI1610139
S'O=C([O-])C12CCC[NH+]1CCC2'
p200
sI704924
S'N#CCCN.O=C(O)C=CC(=O)O'
p201
sI954782
S'Cc1c(C#N)c(=O)n(-c2ccccc2)nc1C(=O)O'
p202
sI143775
S'Cc1cc(C(=O)O)ccc1C(N)C(=O)O'
p203
sI237984
S'C=C(C)CN(CC(=O)O)c1c(N)c(=O)c1=O'
p204
sI485793
S'O=C(O)c1cc(=O)c2c(O)cc(O)cc2o1'
p205
sI1368482
S'CCC1COC(CC(=O)O)CN1'
p206
sI57765
S'CCNC(C(=O)O)c1cc(O)no1'
p207
sI1153449
S'O=C(O)C1CCc2[nH]cnc2C1'
p208
sI1429258
S'Nc1c(-c2ccc(C(=O)O)cc2)cnc2ccnn21'
p209
sI323655
S'NCc1ccc(NC(=O)C(=O)O)cc1'
p210
sI765417
S'O=C(O)Cn1cc2c(n1)CCCCC2'
p211
sI281006
S'NC(=NCC(=O)O)C1COc2ccccc2O1'
p212
sI131503
S'CC1CC(=O)c2cc(C(=O)O)c(O)nc2C1'
p213
sI1165744
S'Cc1c2cc(C(=O)[O-])ccc2[nH]c1C(=O)[O-]'
p214
sI233886
S'O=C(O)c1cc(CO)on1'
p215
sI1018295
S'O=C(O)c1ncn(Cc2ccccc2)c1C(=O)O'
p216
sI641468
S'CCOCC(=O)O'
p217
sI669429
S'NCC1(CC(=O)O)CCNCC1'
p218
sI1031951
S'COc1cc2c(cccc2OC)cc1C(=O)O'
p219
sI128700
S'O=C(O)CNc1ccc2ccccc2c1'
p220
sI934342
S'NN1C(=O)c2cccc3c(C(=O)O)ccc(c32)C1=O'
p221
sI629938
S'CC1OC(c2ccccc2)=NC1C(=O)O'
p222
sI1296840
S'C=CCNC(=O)C=CC(=O)O'
p223
sI1147338
S'N#Cc1ccccc1OC1CNC(C(=O)O)C1'
p224
sI1444300
S'CC(C)(Oc1ccc(CO)cc1)C(=O)O'
p225
sI63906
S'NC1(C(=O)O)CCOC1'
p226
sI251981
S'Cc1cc(O)oc2nnc(CC(=O)O)c1-2'
p227
sI45520
S'O=C(O)CCON=C1CC2CCC1C2'
p228
sI1235410
S'O=C(O)C1C2CCC1C(O)C2'
p229
sI980387
S'Cc1cc2c(nc(C)nc2C=CC(=O)O)o1'
p230
sI1233364
S'CCCn1ncc(C(=O)O)c1C'
p231
sI63959
S'O=C(O)CCC(=O)OCC1=CC(=O)C=CC1=O'
p232
sI1548763
S'[Ag+].CC(=O)[O-].CN1C=CN(C)C1'
p233
sI1479132
S'O=C(O)C1Cc2c(oc(=O)c3cc(O)c(O)c(O)c23)C1=O'
p234
sI956894
S'Cc1c(NC(=O)C=CC(=O)O)cccc1[N+](=O)[O-]'
p235
sI1561055
S'[N-]=[N+]=NC1CC(N)(C(=O)O)C2C(C(=O)O)C21'
p236
sI522723
S'NC(C(=O)O)C(O)c1ccc([N+](=O)[O-])cc1'
p237
sI1357450
S'O=C(O)C1COC(C(=O)O)N1'
p238
sI1319399
S'O=C([O-])C(Cc1cnc[nH]1)[N-]C(=O)CCN[Zn+2]'
p239
sI295407
S'CC(C)(C)C(=O)CC(=O)C(=O)O'
p240
sI41460
S'COC1=C(C(=O)[O-])N2C(=O)C(C(C)O)C2C1'
p241
sI561654
S'O=C(O)CCCCC(CO[N+](=O)[O-])O[N+](=O)[O-]'
p242
sI10743
S'O=C(O)c1cccc2c1Nc1ccccc1O2'
p243
sI1321044
S'NCC(=O)NC1(C(=O)O)CCCC1'
p244
sI641530
S'N#CCCc1cccc(C(O)=CC(=O)C(=O)O)c1'
p245
sI715262
S'CC(=O)C(=NNc1c(C)n[nH]c1C)C(=O)O'
p246
sI492032
S'O=C(O)CNC(=O)c1nccc2[nH]cnc21'
p247
sI164354
S'NC1=NCC(CC(N)C(=O)O)C1'
p248
sI87126
S'Nc1cc(-c2ccccc2)nn(CC(=O)O)c1=O'
p249
sI1305097
S'Cc1cc(-c2ccc(C(=O)O)[nH]2)on1'
p250
sI674316
S'Nc1ccc(C(=O)NCC(=O)[O-])cc1'
p251
sI88589
S'C=C(CC(=O)CC#N)C(=O)O'
p252
sI679683
S'CN=c1c(O)c(O)c1=NCCC(=O)O'
p253
sI272916
S'COC(=O)c1cccc(NC(=O)C(=O)[O-])c1C#N'
p254
sI27054
S'N=C(N)N=C(N)NCCCC(=O)O'
p255
sI971287
S'CC(C)(C(=O)O)n1cncn1'
p256
sI1307160
S'O=C(O)C1CC2C=CCC(C2)C1'
p257
sI143898
S'CC(N)(Cn1c(=O)[nH]oc1=O)C(=O)O'
p258
sI1229339
S'O=C(O)CC1(C(=O)O)CC2C=CC1C2'
p259
sI320031
S'CCCC(CC(=O)O)C(C)N'
p260
sI524833
S'C#CCC(NC(N)=O)C(=O)O'
p261
sI668194
S'C=CC1CC(N)C(C(=O)O)C1'
p262
sI113187
S'N#[N+]C1N=C(CC(=O)[O-])C[N-]1'
p263
sI1026596
S'O=C(O)c1c2cc(O)ccc2oc1-c1ccccc1'
p264
sI1220700
S'O=C(O)Cc1coc2cc3c(cc12)CCC3'
p265
sI84522
S'CC(C)C(NC(=O)C(C)N)C(=O)O'
p266
sI799275
S'CCC(C)N1CC(C(=O)O)CC1=O'
p267
sI553516
S'CNC(CN=C(N)N)C(=O)O'
p268
sI27181
S'CC(N=C(NN)NN)C(=O)O'
p269
sI55854
S'CC(C(=O)O)=C1CCC(C)CC1'
p270
sI1292849
S'CC1C=CC(C(N)C(=O)O)O1'
p271
sI832051
S'O=C(O)C1(c2ccccc2)CCC(=O)C1'
p272
sI1378868
S'O=C([O-])CN1C(=O)c2cccc3cccc(c32)C1=O'
p273
sI215585
S'CC(=O)Nc1ccc(C(=O)O)cc1C=NO'
p274
sI1303094
S'O=Cc1c(=O)[nH]c(=O)[nH]c1C(=O)O'
p275
sI756489
S'O=C(O)C1Oc2cc3ccccc3cc2O1'
p276
sI1413693
S'COc1ccc(-n2ccc(=O)c(C(=O)O)n2)cc1'
p277
sI910439
S'N=C(N)NNC(=O)C(=O)O'
p278
sI1276482
S'O=C([O-])CCc1cccc2c1C(O)OC2'
p279
sI784963
S'Cc1c[n+]([O-])n(-c2ccc(C(=O)O)cc2)n1'
p280
sI1120837
S'O=C(O)C[n+]1ccccc1.c1ccncc1'
p281
sI1163361
S'CNC(CCCNC(=N)N)C(=O)[O-]'
p282
sI768586
S'Cc1oc2c(c1C(=O)O)C(=O)c1ccccc1C2=O'
p283
sI1104584
S'Cc1ccc2nc(C(=O)O)c(C(=O)O)nc2c1'
p284
sI1157712
S'O=C(O)c1ccc([N+](=O)[O-])c2c1C(=O)c1ccccc1C2=O'
p285
sI1327698
S'O=C(O)C1=Cc2cccc3cccc(c32)C1=O'
p286
sI1423957
S'O=C(O)c1cc2nc[nH]c2c(-c2ccccn2)n1'
p287
sI27222
S'O=C(O)C=NNC1=NCCN1'
p288
sI19032
S'COC(=O)C1C2CCC(O2)C1C(=O)O'
p289
sI705295
S'O=C(O)c1cccc2c1Cc1ccccc1N=C2'
p290
sI8293
S'O=C(O)C1CN=C(c2ccccc2O)N1'
p291
sI576096
S'O=C(O)CC[n+]1cccc(C=NO)c1'
p292
sI53857
S'O=C(O)c1cc([N+](=O)[O-])cc2c1NCCO2'
p293
sI49764
S'O=C([O-])c1cc2cc(-c3cccnc3)ccc2o1'
p294
sI295525
S'CN(C)C(=O)O'
p295
sI467729
S'O=C(O)C(=O)CC(CO)C(=O)O'
p296
sI1378923
S'CC(=O)[O-].Cn1cnc2c1c(=O)[nH]c(=O)n2C'
p297
sI1606252
S'CC(O)(NNC(=O)c1ccncc1)C(=O)O'
p298
sI624402
S'CC(C=Cc1ccccc1)=NOCC(=O)O'
p299
sI787058
S'O=C(O)CCc1nnc2cnc3ccccc3n21'
p300
sI133747
S'O=C(O)c1ccccc1Cc1ccc(O)cc1'
p301
sI963188
S'O=C(O)CCCN=CC1=C(O)CNC1=O'
p302
sI1622646
S'CN1C(=O)C(C(=O)O)CC1c1cccnc1'
p303
sI154232
S'O=C(O)C1=C(C(=O)O)C2C=CC1C1C(C(=O)O)C12'
p304
sI238202
S'Nc1c(=O)c(=O)c1NCCCC(=O)[O-]'
p305
sI189051
S'O=C(O)C1=CC2CCC1C2'
p306
sI117372
S'CCn1c2ncccc2c(N)c(C(=O)O)c1=O'
p307
sI27261
S'NC(=NN=CC(=O)O)N[N+](=O)[O-]'
p308
sI1477254
S'CC(=O)NC(C#N)C(=O)O'
p309
sI367240
S'O=C(O)c1cnn(-c2ccc(-c3cncnc3)cn2)c1'
p310
sI45164
S'O=C(O)CCON=Cc1ccco1'
p311
sI92810
S'CC1Cc2c(C(=O)O)ccc(O)c2C(=O)O1'
p312
sI1120909
S'O=C(O)C=CC(=O)Nc1ncn[nH]1'
p313
sI400671
S'O=C(O)C=Cc1cc(=O)[nH]nc1-c1ccccc1'
p314
sI254609
S'O=C(O)CCC(=O)n1ccc2c1cccc2O'
p315
sI1036946
S'O=C(O)C=CC(=O)NNc1ncnc2ccccc21'
p316
sI863683
S'CCOc1ccc2oc(C(=O)O)c(C)c2c1'
p317
sI1038996
S'CCC(C(=O)O)c1ccccc1'
p318
sI1301615
S'NC(CCC(=O)c1ccccn1)C(=O)O'
p319
sI1229468
S'O=C(O)C1=CCC=CC1C(=O)O'
p320
sI830109
S'O=C(O)C=CC(=O)Nc1ccc2c(c1)NC(=O)CO2'
p321
sI27295
S'CC1=NN=C(NCC(=O)O)NN1'
p322
sI215712
S'N=C(N)Nc1cc(C=NO)cc(C(=O)O)c1'
p323
sI100464
S'CC(C)OC1OC(C(=O)O)=CC(O)C1O'
p324
sI289444
S'O=C(O)C1CC(Cc2nn[nH]n2)CCN1'
p325
sI1192613
S'N=C(N)NCC1CC1C(N)C(=O)O'
p326
sI797350
S'C[N+]1(C)CC(O)CC1C(=O)[O-]'
p327
sI1068145
S'CC1C(C(=O)O)=NOC1CC(N)C(=O)O'
p328
sI126730
S'CN1CC=C(C(=O)O)C1'
p329
sI316080
S'O=C(O)C1(O)C=C(c2ccoc2)C(O)C(O)C1'
p330
sI424627
S'O=C(O)C1NCC=CC1O'
p331
sI178869
S'NC(C(=O)O)C1CC=CCC1C(=O)O'
p332
sI1166010
S'O=C(O)C(O)C1OC(=O)C(O)C1O'
p333
sI842428
S'Cc1cccc(NC(=O)c2ccco2)c1C(=O)O'
p334
sI8893
S'Cn1c(C(=O)O)ccc1[N+](=O)[O-]'
p335
sI90816
S'COCOC(C)C(=O)C(=O)O'
p336
sI108137
S'NC(CCCC1(C(=O)O)CN1)C(=O)O'
p337
sI125638
S'C=CC1C(C(=O)O)C1C(N)C(=O)O'
p338
sI948001
S'O=C(O)C1Cc2ccccc2C(=O)O1'
p339
sI1120968
S'CC(=O)C=NCC(=O)O'
p340
sI547529
S'NC1C=CCOC1C(=O)O'
p341
sI311111
S'Cc1ccccc1C(=O)CC(=O)C(=O)O'
p342
sI1047245
S'CC(C=Cc1cccnc1)=CC(=O)O'
p343
sI705230
S'CC1(C(=O)O)CCNC1C(=O)O'
p344
sI1297103
S'O=C(O)Cn1c2nc[nH]c2c(=O)[nH]c1=O'
p345
sI215760
S'N#CNc1cc(NC#N)cc(C(=O)O)c1'
p346
sI580307
S'O=C([O-])c1cccc(-c2ccccc2[O-])c1C(=O)[O-]'
p347
sI1579733
S'O=C(O)c1cccc(OCCO)c1C(=O)O'
p348
sI633561
S'O=C(O)c1ccc2c(c1)C1C=CCC1CN2'
p349
sI685322
S'O=C(O)c1c[nH]c(=O)[nH]c1=O'
p350
sI1383131
S'CC1=CC(=NOCC(=O)O)c2ccccc2C1=O'
p351
sI244444
S'O=C(O)CCCC1CCCC(=O)N1'
p352
sI998181
S'O=C(O)Cc1nc[nH]c1C(=O)O'
p353
sI180960
S'N=C(N)Nc1nccc2ccc(C(=O)O)cc21'
p354
sI70370
S'O=C(O)c1ccc(CN2C(=O)C=CC2=O)cc1'
p355
sI25317
S'Nc1ncnc2c1cnn2CCC(=O)O'
p356
sI674535
S'Nc1ccc(C(=O)[O-])c(O)c1'
p357
sI412393
S'O=C(O)C1NCCc2c3cc(O)ccc3[nH]c21'
p358
sI1086190
S'O=C(O)c1ccc2c(c1O)C(=O)C(=O)N2'
p359
sI1620719
S'CCN1N=C(O)CC1C(N)C(=O)O'
p360
sI983792
S'Cc1c(O)nc(C=CC(=O)O)nc1C(=O)O'
p361
sI123633
S'COc1cc(C(C)=C(C#N)C(=O)O)ccc1O'
p362
sI68342
S'CC(=CC(=O)O)C(=O)c1ccccc1'
p363
sI1011244
S'O=C(O)c1cc2ccccc2n1-c1ccccc1'
p364
sI705274
S'NC(=O)C(=O)[O-]'
p365
sI215167
S'NC(N)=Nc1cc(N=C(N)N)cc(C(=O)O)c1'
p366
sI178940
S'O=C(O)C1NC(=O)C2CC=CCC21'
p367
sI591658
S'NCC(N)C(=O)NCC(N)C(=O)O'
p368
sI985854
S'COc1ccc(C(CC(=O)O)C(N)=O)cc1'
p369
sI547586
S'CC1(C)CC(N)C(C(=O)O)C1'
p370
sI822059
S'CC(=NNc1nc(C)cc(O)n1)C(=O)O'
p371
sI131845
S'CC(=Cc1ccc(OCC(=O)O)cc1)[N+](=O)[O-]'
p372
sI58119
S'CC(N)(CCCN)C(=O)O'
p373
sI1282825
S'O=C(O)C(=O)c1cccc(C(=O)C(=O)O)c1O'
p374
sI154381
S'O=C([O-])C12CCC(C(=O)[O-])(CC1=O)C(=O)C2'
p375
sI154489
S'[H]C1C(C(=O)O)C([H])C1C(=O)O'
p376
sI803600
S'O=C(O)c1ccc2cccnc2n1'
p377
sI1026833
S'O=C(O)COc1ccc(=O)n(-c2ccccc2)n1'
p378
sI936722
S'Nc1nc(O)c(N=Nc2ccccc2)c(C(=O)O)n1'
p379
sI213779
S'NC(C(=O)O)c1ccc(O)c(C(=O)O)c1'
p380
sI1075988
S'COc1ccc2[nH]c(-n3cc(C(=O)O)cn3)nc2c1'
p381
sI154390
S'O=C(O)C12CCC(CC1)C2'
p382
sI25367
S'N=C(N)c1ccccc1NCCC(=O)O'
p383
sI522031
S'CC1(C)C(C)(C)C1(C)C(=O)O'
p384
sI27441
S'CNC(=N)NN=CC(=O)O'
p385
sI375583
S'CC(=O)NC1=CC(=O)c2ccc(C(=O)O)nc2C1=O'
p386
sI1088304
S'O=C(O)C(O)C(O)c1nc2ccccc2[nH]1'
p387
sI682786
S'O=C(O)c1n[nH]c2c1CC(n1ccnn1)C2'
p388
sI43811
S'O=C(O)c1ccc(NCc2cccnc2)cn1'
p389
sI3206
S'CC1(C(=O)O)C2CCC(O2)C1(C)C(=O)O'
p390
sI138033
S'CCCC1CC=C(C(=O)O)CN1'
p391
sI115499
S'CC(C)C1CN(C(=O)O)C1=O'
p392
sI684850
S'O=C(O)C1C=CCC2C(=O)C=CC(=O)C12'
p393
sI1301295
S'Cc1c(C(=O)O)n(C)c(=O)n(C)c1=O'
p394
sI27440
S'O=C(O)CN=C(NCCO)NCCO'
p395
sI905352
S'O=C(O)C=CC(=O)OC1CC2CCC1C2'
p396
sI340786
S'O=C(O)c1nc(-c2cnccn2)nc(O)c1O'
p397
sI27443
S'N=C(N)NN=C(Cc1ccccc1)C(=O)O'
p398
sI684852
S'O=C(O)c1cc(=O)cc2n1CCNC2=O'
p399
sI684853
S'CC(=O)c1c(=O)oc(C)c(C(=O)O)c1O'
p400
sI1033014
S'NCc1oc(-c2ccccc2)cc1C(=O)O'
p401
sI674615
S'CC(O)C(=O)[O-]'
p402
sI1473336
S'Cn1c2c(nc3[nH]nc(C(=O)O)c(=O)n32)c(=O)n(C)c1=O'
p403
sI235234
S'O=C(O)CCN1C=CC(=O)C(O)C1'
p404
sI641851
S'NC1C=C(C(=O)O)OC1'
p405
sI486204
S'O=C(O)Cc1nc(Cc2cccc([N+](=O)[O-])c2)no1'
p406
sI486205
S'O=C(O)Cc1coc(-c2ccccc2)n1'
p407
sI207669
S'O=C([O-])c1ccc(-c2ccccn2)nc1'
p408
sI1233729
S'O=C(O)CC(CC(=O)O)n1cccc1'
p409
sI983875
S'Cn1cc(-c2ccno2)c(C(=O)O)n1'
p410
sI705348
S'O=C(O)C1=CCCNC1'
p411
sI195400
S'O=C(O)C1CC1c1c[nH]cn1'
p412
sI576311
S'O=C(O)C[N+](=O)[O-]'
p413
sI219980
S'CN1C(=O)c2cccn2C(CCC(=O)O)C1=O'
p414
sI1315661
S'O=C(O)C#CCO'
p415
sI1362768
S'NC1(C(=O)O)CC2CCC1C2'
p416
sI1325880
S'O=C(O)C12C3CCC1CCCC32'
p417
sI1121108
S'O=C(O)C1C2CC(=O)C(C2=O)C1C(=O)O'
p418
sI484494
S'CC(C)=CCc1cc(C(=O)O)ccc1O'
p419
sI1028952
S'CC(=NNC(=O)c1ccccc1)C(=O)O'
p420
sI1366873
S'CCn1c(C(=O)O)cc2cc(O)c(O)cc21'
p421
sI1309531
S'CCc1n[nH]c(=O)n1NC(=O)C=CC(=O)O'
p422
sI27484
S'NN1CCNN=C1NCC(=O)O'
p423
sI160605
S'C=C(OC1C=CC=CC1O)C(=O)[O-]'
p424
sI183138
S'O=C(O)C=CC1=CCNCC1'
p425
sI11067
S'O=C(O)Cc1cccc2nc(O)c(O)nc12'
p426
sI1287012
S'O=C(O)C1CCc2nnc(-c3ccccc3)n21'
p427
sI201573
S'C#CCN(C)CCC(=O)O.O=C(O)C(=O)O'
p428
sI1004390
S'O=C(O)c1ccccc1NC=C[N+](=O)[O-]'
p429
sI830312
S'O=C(O)c1cc(C(=O)C2CC2)c[nH]1'
p430
sI1379180
S'NC(CC(=O)[O-])C(=O)[O-]'
p431
sI1319791
S'CCC(Nc1ncnc2nc[nH]c21)C(=O)O'
p432
sI498545
S'Cn1cc2c(c1)-c1oc(=O)c(C(=O)O)cc1CC2'
p433
sI1594228
S'[H]C([H])(C(=O)O)C([H])([H])C(=O)CN'
p434
sI215926
S'CN(C)c1ccc(C(=O)C(=O)O)cc1'
p435
sI103913
S'COc1nn(CC=C(C)C)cc1C(=O)O'
p436
sI224121
S'CC(=O)c1c(O)cc(OCC(=O)[O-])cc1O'
p437
sI154490
S'O=C([O-])C1C2C=CC(C3CC32)C1C(=O)[O-]'
p438
sI486272
S'O=C(O)c1cc2[nH]ncc2[nH]1'
p439
sI873348
S'O=C(O)CCCNC1=NCCC1'
p440
sI222089
S'O=C(O)C12CCC(=O)N1CC(=O)N2'
p441
sI1362828
S'O=C([O-])CC(=O)C(=O)[O-]'
p442
sI17293
S'O=C(O)C1CNCC(O)C1'
p443
sI629648
S'Cc1cn2ccc3[nH]c(C(=O)O)cc3c2n1'
p444
sI1121170
S'CCOC(=O)C1(CC(=O)O)CCCC1=O'
p445
sI5011
S'O=C(O)c1cc2n(n1)C(C(=O)O)Nc1ccccc1-2'
p446
sI910830
S'O=C(O)C=Cc1cccc2c1OCCO2'
p447
sI226209
S'CC(C)(CN)C(CN)C(=O)O'
p448
sI940962
S'CN1CCNC(=O)C1CC(=O)O'
p449
sI504740
S'CC(=O)O.O=C1C(CO)=CC(O)C2OC12'
p450
sI1221541
S'CC12C(C(=O)O)C1(c1ccccc1)C2C(=O)O'
p451
sI218023
S'O=C(O)C1NCC2C(=O)NOC21'
p452
sI106652
S'Nc1ncc(CC(C(=O)O)c2c[nH]cn2)cn1'
p453
sI295850
S'Nc1nc2c(c(O)n1)C(CNCC(=O)O)C=N2'
p454
sI504747
S'COc1ccc(CCC(=O)O)cc1OC'
p455
sI400301
S'O=C(O)c1ccc(NC2CCC2)c([N+](=O)[O-])c1'
p456
sI730032
S'Cc1nn(C)c(C)c1C=CC(=O)O'
p457
sI144305
S'NC1(C(=O)O)CCC(CC(=O)O)C1'
p458
sI1094579
S'O=C(O)CCCN1C(=O)NC2NC(=O)NC21'
p459
sI273333
S'O=C(O)c1ccc2nccc(=O)n2c1'
p460
sI144310
S'CCOC(=O)C1OC1C(=O)O'
p461
sI543671
S'N=C(N)CNCC(=O)O'
p462
sI543674
S'CC(=NN=C(N)N)C(=O)O'
p463
sI172987
S'O=C(O)c1ccc2c(c1)C(=Cc1ccc[nH]1)C(=O)N2'
p464
sI783292
S'Cn1nc(C(C)(C)C)cc1C(=O)O'
p465
sI322494
S'CC1CC2C(C(=O)O)C2C1(N)C(=O)O'
p466
sI1047116
S'C=C(c1ccccc1)[n+]1cccc(C(=O)O)c1'
p467
sI705472
S'Nc1nc2c(ncn2COCC(=O)O)c(=O)[nH]1'
p468
sI218049
S'O=C(O)c1cccc2[nH]c(-c3ccc(O)cc3)nc21'
p469
sI949186
S'CC(=O)N1CCN(CC(=O)O)CC1'
p470
sI388035
S'CC(C(=O)O)c1cccc(C(=O)c2ncco2)c1'
p471
sI1410119
S'CCC1CC(C(=O)O)CC(=O)N1'
p472
sI1211335
S'O=C(O)c1cc2cccc([N+](=O)[O-])c2[nH]1'
p473
sI1342409
S'CC(Oc1ncc(C(N)=O)c(N)n1)C(=O)O'
p474
sI400331
S'CCCNc1ccc(C(=O)O)cn1'
p475
sI453581
S'CC(=O)NC(CCC([O-])=C[N+]#N)C(=O)O'
p476
sI1205198
S'CC1(C)C(CC(=O)O)CC1C(=O)O'
p477
sI748496
S'O=C(O)c1cncc(C#Cc2ccccc2)c1'
p478
sI97233
S'O=C(O)Cn1c(=O)ccc2cc(O)ccc21'
p479
sI1082323
S'Cc1ccc(C(=O)N2CC(C(=O)O)C2)cc1'
p480
sI674777
S'O=C([O-])[O-]'
p481
sI412637
S'O=C(O)c1ccnnc1'
p482
sI1296549
S'Cc1nnc2cc(C(=O)O)c3ccccc3n2c1=O'
p483
sI682832
S'CC1=NC(C(=O)O)Cc2c3ccccc3[nH]c21'
p484
sI144550
S'C=C1CC1CC(=O)O'
p485
sI1121254
S'O=C(O)c1oc(C(=O)O)c(C(=O)O)c1C(=O)O'
p486
sI58344
S'CC(C)(C)OC(=O)C1CC(C(=O)O)N1'
p487
sI1334253
S'NC(N)=NC(=O)c1ncc(NCC(=O)O)nc1N'
p488
sI201712
S'O=C(O)C1=Cc2cc([N+](=O)[O-])ccc2CC1=O'
p489
sI861169
S'CC(C)=CC1C(C(=O)O)C1(C)C'
p490
sI228338
S'O=C(O)c1c(O)nnc2c1CCc1ccccc1-2'
p491
sI1164276
S'Cc1ccc(C)c(C(=O)C=CC(=O)O)c1'
p492
sI644085
S'O=C(O)C1(C(=O)O)CCC1'
p493
sI346281
S'CC(O)C1C(=O)NC1=CC(=O)O'
p494
sI164692
S'CN(CCCC(N)C(=O)O)C(=N)N'
p495
sI17219
S'O=C(O)C1CCNCC1O'
p496
sI1317889
S'NC(CNc1ccc(O)cc1)C(=O)O'
p497
sI1410053
S'CC1CCc2onc(C(=O)O)c2C1'
p498
sI1524752
S'Cc1c(O)c(C(=O)O)cc[n+]1C'
p499
sI678617
S'O=C(O)C1C(CCO)OC2CC(=O)N21'
p500
sI412685
S'Cc1noc(C(=O)O)n1'
p501
sI711694
S'O=CNC(Cc1ccc(O)cc1)C(=O)O'
p502
sI33807
S'O=C(O)c1cccn1Nc1ccc(O)cc1'
p503
sI177168
S'O=C(O)Cn1c(=O)n2n(c1=O)C(C(=O)O)C=CC2'
p504
sI684855
S'O=C(O)C1C(O)=CC(=O)CC1c1ccccc1'
p505
sI1326099
S'CC1(C(=O)O)CCOc2ccccc21'
p506
sI1529006
S'N#CCCCc1c[nH]c2ccc(C(=O)O)cc12'
p507
sI1539094
S'O=C(O)CC1(C(=O)O)CCCC1'
p508
sI739161
S'Cc1cc(O)c(C=O)c(O)c1C(=O)O'
p509
sI384025
S'O=C(O)c1cnn2c1NC(c1ccccc1)C2'
p510
sI1565724
S'CC(=O)Nc1cccc2c(=O)cc(C(=O)O)oc12'
p511
sI146463
S'O=C(O)c1nc(O)c2cc3cc(O)ccc3nc2n1'
p512
sI774320
S'Cc1c(C(=O)O)cccc1-c1ccc(C=O)o1'
p513
sI482065
S'O=C(O)c1[nH]cc2c1C(=O)NCC2'
p514
sI58405
S'CC(=O)N1C(C(=O)O)CC1C(=O)O'
p515
sI1221672
S'Cc1cc(-c2onc(C)c2C(=O)O)no1'
p516
sI79415
S'NC(CC(C(=O)O)=C1CCC1)C(=O)O'
p517
sI211510
S'O=C(O)CCn1oc(=O)[nH]c1=O'
p518
sI1340461
S'O=C([O-])C1=CNC(C(=O)O)=NN1'
p519
sI1074227
S'O=C(O)c1ccc2[nH]c(-c3ccc([N+](=O)[O-])o3)nc2c1'
p520
sI1340470
S'CN(C)C=NC(C(=O)[O-])c1ccccc1'
p521
sI412728
S'COCCc1cc(C(=O)O)[nH]n1'
p522
sI904249
S'O=C(O)C1CN2CCC1CC2'
p523
sI390205
S'NC1(C(=O)O)CC1C1CC(C(=O)O)=NO1'
p524
sI568382
S'Cc1cc2c(c(C(=O)O)c1)CC(C)C2=O'
p525
sI58549
S'CCC1CCCC(C(=O)O)O1'
p526
sI390209
S'O=C(O)C1CC2(CN1)CC(O)=NO2'
p527
sI431173
S'O=C([O-])CNC(C(=O)[O-])C(O)C(=O)[O-]'
p528
sI746567
S'COc1ccc2c(c1)C(=O)OC2CC(=O)O'
p529
sI705610
S'C=C(C)C1CC=C(C(=O)O)CC1'
p530
sI1205324
S'Nc1ccc2c(c1)C(O)c1cccc(C(=O)O)c1-2'
p531
sI1340493
S'NC(CN(O)N=O)C(=O)[O-]'
p532
sI46158
S'CCCC=CCNN=C(C)C(=O)O'
p533
sI46159
S'C=CCCCCNN=C(C)C(=O)[O-]'
p534
sI412753
S'O=C(O)c1[nH]nc2c1COCC2'
p535
sI3156
S'N#CCC1CC2OC1C(C(=O)O)C2C(=O)O'
p536
sI994830
S'CCN(CCC(=O)O)c1ccccc1'
p537
sI25686
S'N#CNC(N)=NCCC(=O)O'
p538
sI543834
S'NCC1(CC(=O)O)Cc2ccccc21'
p539
sI705627
S'C=C(CCO)C(=O)O'
p540
sI667834
S'Cc1ccc(O)c(C2=NC(C(=O)O)CC2)c1'
p541
sI545637
S'O=C(O)C1NCC12CCCCC2'
p542
sI361568
S'C=C1C(=O)OC(CCC)C1C(=O)O'
p543
sI1105011
S'N#Cc1ccc(OCc2ccc(C(=O)O)o2)cc1'
p544
sI836708
S'NCCOC=CC(N)C(=O)O'
p545
sI255077
S'Cc1ccc2oc3nc(O)c(C(=O)O)cc3c(=O)c2c1'
p546
sI1004647
S'N#CC(C(=O)O)=C1CCCC1'
p547
sI25704
S'Nc1cccc[n+]1CCC(=O)[O-]'
p548
sI668778
S'C=C=C1CC(N)C(C(=O)O)C1'
p549
sI1340524
S'CC(Nc1nc(N)c(N=O)c(=O)n1C)C(=O)[O-]'
p550
sI1420397
S'O=C(O)c1cc(O)c[n+]([O-])c1'
p551
sI972989
S'Cc1nc2nc(CC(=O)O)nn2c(O)c1[N+](=O)[O-]'
p552
sI164712
S'CC(N)C(=O)N1C(=O)N(C)CC1C(=O)O'
p553
sI430611
S'O=C(O)C=Cc1cc(CO)ccc1CO'
p554
sI314485
S'COC1c2ccccc2CC=C1C(=O)O'
p555
sI574585
S'O=C(O)c1c(-c2ccccc2)no[n+]1[O-]'
p556
sI275578
S'O=NN1CC(O)CC1C(=O)O'
p557
sI150719
S'O=C(O)c1ccc2c(c1)Cc1c-2nc(O)c2nccn12'
p558
sI601212
S'C=CCC(O)(CCO)CC(=O)O'
p559
sI484478
S'C[n+]1cccc(C(=O)[O-])c1'
p560
sI423042
S'N=C(N)NCCC=C(CC(=O)O)C(=O)O'
p561
sI240771
S'O=C(O)CC(CC1(O)CNC1=O)C(=O)O'
p562
sI285828
S'O=C(O)C=CC(O)C1CCCCC1'
p563
sI130182
S'O=C([O-])CCN1CCCN=C2C(=O)C(O)=C21'
p564
sI1324167
S'O=C(O)C1C(=O)Oc2c(cccc2[N+](=O)[O-])C1O'
p565
sI3209
S'O=C(O)C1CC2C=CC1C2'
p566
sI361610
S'Nc1n[nH]c(N)c1N=Nc1ccccc1C(=O)O'
p567
sI799883
S'Cc1nc(C)n(C(C)CC(=O)O)n1'
p568
sI1297550
S'CC(=O)OC(=C(C#N)C#N)c1nccnc1C(=O)O'
p569
sI386191
S'O=C(O)C1NC(=O)OC1C=Cc1ccccc1'
p570
sI1143954
S'CCCCCOC(=O)C=CC(=O)O'
p571
sI726163
S'CC1(C)NC(=O)N(CC(=O)O)C1=O'
p572
sI27801
S'N#Cc1cccc2nc(C(=O)O)cc(O)c12'
p573
sI5274
S'O=C([O-])C1C(=CCO)OC2CC(=O)N21'
p574
sI523802
S'O=C(O)c1cc(=O)c(OCc2ccccc2)co1'
p575
sI216223
S'N#CN=[N+]([O-])c1ccc(C(=O)O)cc1'
p576
sI773281
S'O=C(O)C1CCC2(C1)NC(=O)NC2=O'
p577
sI242850
S'CCn1oc(C(=O)O)c(CC(N)C(=O)O)c1=O'
p578
sI646308
S'O=C(O)CC1CCCN1'
p579
sI793766
S'CC(=O)N1CC=CC1(C)C(=O)O'
p580
sI492712
S'N#Cc1cc([N+](=O)[O-])ccc1Oc1cccc(C(=O)O)c1'
p581
sI1469609
S'Cc1n[nH]c2nnc3nc(CCC(=O)O)[nH]c3c12'
p582
sI384173
S'Cn1nnc2c1ccc1c(=O)c(C(=O)O)cn(C)c21'
p583
sI70830
S'CC(=O)Oc1ccc(N2C(=O)C=CC2=O)cc1C(=O)O'
p584
sI1096881
S'O=C(O)C1CC(=O)OC12CCCC2'
p585
sI92726
S'CC(c1ccc(C(=O)O)o1)N(O)C(N)=O'
p586
sI25779
S'N=C(N)N1CCCCC1CC(=O)O'
p587
sI1566
S'C=C1C(CCCC)C1CC(=O)[O-]'
p588
sI250557
S'CC(C)[N+](C)(C)CC(=O)O'
p589
sI352799
S'O=C(O)CNC(=O)Cn1ccc(=O)[nH]c1=O'
p590
sI1377470
S'Cc1cc(=O)oc2cc(O)c(OCC(=O)O)cc12'
p591
sI986303
S'CC(C(=O)O)N1CCCCC1'
p592
sI685248
S'O=C(O)CN1C(=O)OC(c2ccccc2)C1=O'
p593
sI462023
S'O=C(O)CCCCc1cccc(=O)o1'
p594
sI142536
S'COc1c(O)cc(C(=O)O)cc1C#N'
p595
sI251083
S'O=C(O)CC1(C(=O)O)OC1C(=O)O'
p596
sI736460
S'N#CC(C#N)=Cc1cccn1-c1ccc(C(=O)O)cc1'
p597
sI666830
S'Nc1ccc2c(c1)CC(N)(C(=O)O)CC2'
p598
sI338467
S'CCCCn1nnc2cc(C(=O)O)ccc21'
p599
sI376697
S'O=C(O)c1cc(O)cc(O)c1CO'
p600
sI1008856
S'Cc1cccc(-n2cnc(C(=O)O)c2)n1'
p601
sI482521
S'O=C(O)C1=NCCCCC(C(=O)O)N1'
p602
sI1351815
S'Cc1cc(C(=O)O)cc(=O)n1O'
p603
sI1297629
S'O=C(O)CCCC#CCCCC(=O)O'
p604
sI1139941
S'CCC(C)CCC(=O)[O-]'
p605
sI1340648
S'[Ca+2].O=C([O-])C(O)C(O)C(O)C(=O)C[O-]'
p606
sI126189
S'CC1NCC=C1C(=O)O'
p607
sI253166
S'O=C(O)C(CC(O)c1nc[nH]n1)C(=O)O'
p608
sI1139955
S'N#Cc1ccc(C(=O)[O-])cc1'
p609
sI1144052
S'CC(OC(=O)C=CC(=O)O)c1ccccc1'
p610
sI643625
S'COc1ccc(C2OC2C(=O)O)cc1'
p611
sI1492216
S'CC1=CC(=O)C=CC1=NCCCC(=O)O'
p612
sI1410298
S'O=C(O)Cc1ccc2c(c1)Cc1cccnc1O2'
p613
sI797949
S'Cc1cc2ccccn2c1C(=O)C(=O)O'
p614
sI1416446
S'O=C(O)C=Cc1ccc(Oc2ncccn2)cc1'
p615
sI38143
S'COC(=O)C1CC(C)(C(=O)O)NC(=O)N1'
p616
sI509185
S'NC(CCc1cnc[nH]1)C(=O)O'
p617
sI1000706
S'Cn1nc2c(c1C(=O)O)CCCC2'
p618
sI285955
S'CC(C)=CCCC(C)=CC(=O)O'
p619
sI304390
S'O=C([O-])CC(O)(CC(=O)[O-])C(=O)[O-]'
p620
sI204039
S'O=C(O)C1=NOC2CNC(C(=O)O)C12'
p621
sI488712
S'O=C(O)c1ccc2[nH]c(-c3ccccc3)cc2c1'
p622
sI26156
S'Nc1nc2ccnc(-c3cccc(C(=O)O)c3)n2n1'
p623
sI283914
S'O=C(O)N1CCc2onc(O)c2CC1'
p624
sI1305868
S'C=C1C(C(=O)O)C1C(=O)O'
p625
sI308494
S'CC(C)(CO[N+](=O)[O-])C(=O)O'
p626
sI665133
S'NC1CCNC1C(=O)O'
p627
sI834832
S'O=C(O)C1C2CC2CN1c1ncccc1[N+](=O)[O-]'
p628
sI323800
S'O=C(O)c1cccc(C=NOc2ccccc2)c1'
p629
sI1120255
S'CC(CC(=O)O)C(C(=O)O)C(=O)O'
p630
sI27182
S'NN=C(N)N(N)CC(=O)O'
p631
sI429334
S'CC(c1ccccc1)n1cncc1C(=O)O'
p632
sI871704
S'O=C(O)CCC(=O)OCC1CCCO1'
p633
sI204057
S'Cc1ccc(C(=O)O)cc1N1CCC1=O'
p634
sI68892
S'O=C([O-])c1ccc2c(c1)nc(O)c1ccccc12'
p635
sI4067
S'CC(=O)N(CC(=O)O)c1ccc(O)cc1'
p636
sI126240
S'CC1=C(C(=O)O)CNC1'
p637
sI1410337
S'CC12CCC(CC1O)C2C(=O)O'
p638
sI1307939
S'N#Cc1nc(-c2ccccc2C(=O)O)oc1N'
p639
sI630052
S'[N-]=[N+]=CC(=O)OCC(N)C(=O)O'
p640
sI688439
S'O=C(O)C1CNCCN1'
p641
sI1293607
S'COc1ccc2c3c(c(C(=O)O)oc31)CCC2'
p642
sI1422632
S'[N-]=[N+]=NC1CC(n2ccc(=O)[nH]c2=O)OC1C(=O)O'
p643
sI1422635
S'Cc1cn(C2C=CC(C(=O)O)O2)c(=O)[nH]c1=O'
p644
sI519730
S'O=C(O)C(=O)CC(=O)Cc1ccncc1'
p645
sI1043758
S'CC(=O)OC(CC(=O)O)[N+](C)(C)C'
p646
sI1101105
S'CN1CCC(C(=O)C(=O)O)C1=O'
p647
sI30005
S'O=C(O)CC1c2ccccc2OC1C(=O)O'
p648
sI595254
S'N#Cc1ccc2[nH]c(C(=O)O)nc2c1'
p649
sI641929
S'O=C(O)c1cccc(C(=O)O)[n+]1[O-]'
p650
sI849209
S'CC(C(=O)O)c1nnc(O)c2ccccc21'
p651
sI490811
S'O=C(O)c1n[nH]c2ccccc21'
p652
sI288061
S'C=C(OC1C=C(C(=O)O)C=C2OC21)C(=O)O'
p653
sI685374
S'C#CC(=O)O'
p654
sI685375
S'C=C(C)C(=O)O'
p655
sI412993
S'O=C(O)C(O)=CC(=O)NCc1ccc([N+](=O)[O-])cc1'
p656
sI318786
S'CN1CCCC1c1ccc(C(=O)O)nc1'
p657
sI405046
S'Cc1cnc2[nH]c3c(cc(C(=O)O)nc3C)c2c1'
p658
sI1420614
S'Nc1nc(NC(CO)C(=O)O)c(N=O)c(=O)[nH]1'
p659
sI1328456
S'Nc1ccc(C(=O)O)c2[nH]c3ccccc3c(=O)c12'
p660
sI949695
S'Cc1ccn2cc(CC(=O)O)nc2c1'
p661
sI52791
S'CC1CCC(=NN)c2ncc(C(=O)O)c(=O)n21'
p662
sI73038
S'NN(CCC(=O)O)c1nc2ccccc2o1'
p663
sI58706
S'O=C(O)Cn1nnc(-c2cc(O)c(O)c(O)c2)n1'
p664
sI1580371
S'O=C(O)CC1NCC2CCCN2C1=O'
p665
sI1142105
S'O=C(O)CNc1cccc2c(=O)[nH]ccc12'
p666
sI1142106
S'Nc1cccc2c1ccn(CCC(=O)O)c2=O'
p667
sI222556
S'O=C(O)c1cc2cc(O)c(O)cc2c(=O)c(O)c1'
p668
sI1359198
S'O=C([O-])C1OC(O)C(O)C(O)C1O'
p669
sI400735
S'Cn1ncc(C=C(C(=O)O)C(=O)O)cc1=O'
p670
sI685413
S'C=C1C(=O)OC=C1C(=O)O'
p671
sI1291624
S'Cc1c2ccccc2c2nncn2c1C(=O)O'
p672
sI1322345
S'O=C(O)CCCn1nnc2c1c(=O)[nH][nH]c2=O'
p673
sI914796
S'CCOC(=O)c1[nH]c(C)c(C(=O)O)c1C'
p674
sI1471378
S'O=C(O)c1nc2ccccn2c1[N+](=O)[O-]'
p675
sI235662
S'NC(CC1=CC(=O)NC1=O)C(=O)O'
p676
sI1076591
S'O=C(O)c1cc2ccc(-c3nn[nH]n3)cc2n1O'
p677
sI181616
S'O=C(O)c1oc2ccccc2c(=O)c1O'
p678
sI695666
S'NC1C(C(=O)O)=CC=CC1O'
p679
sI911165
S'CC(C)N(CC(=O)O)CC(=O)O'
p680
sI558452
S'CCCC(C)Nc1cc(C(=O)O)n[nH]1'
p681
sI570942
S'COC(=O)CNC(=O)C(=O)O'
p682
sI1545590
S'CNCC(=O)N1CCCC1C(=O)O'
p683
sI73081
S'C=CC=CNC(=O)OCC(=O)O'
p684
sI642426
S'CC(C)(C)CC(O)CC(=O)O'
p685
sI755067
S'Cc1nc2ncnn2c(C)c1CCC(=O)O'
p686
sI9597
S'O=C(O)CCC=C(NC(=O)C1CC1)C(=O)O'
p687
sI454018
S'Nc1nc(=O)c(CCCCC(=O)O)c(O)[nH]1'
p688
sI854113
S'CN(C)c1ccnc(C(=O)O)c1'
p689
sI1326471
S'O=C(O)C1=CCCc2ccc3ccccc3c21'
p690
sI685452
S'O=C(O)c1ccc(=O)[nH]n1'
p691
sI135746
S'NC(Cc1c(O)noc1-c1ccncc1)C(=O)O'
p692
sI1340814
S'C=C1C(=O)CCC1C(=O)[O-]'
p693
sI165263
S'O=C(O)C(Cc1ccccc1)C1CC1'
p694
sI867734
S'O=C(O)C=Cc1cnc2ccccc2n1'
p695
sI106052
S'CCC1=CC=CC(C(=O)O)C1'
p696
sI1303964
S'N=C(N)NN=Cc1ccc(O)c(C(=O)O)c1'
p697
sI380317
S'O=Cc1cc(C(=O)O)c(O)c(C2CCCO2)c1'
p698
sI931230
S'Cc1cc(O)n2nc(C(=O)O)nc2n1'
p699
sI141893
S'O=C([O-])c1cc(O)cc(OC(C(=O)O)C(=O)O)c1'
p700
sI1615265
S'CCc1cc(C)[n+]([O-])c(N)c1C(=O)O'
p701
sI85411
S'CC(NC(=O)C1CCCN1)C(=O)O'
p702
sI990630
S'C=CCc1cccc2cc(C(=O)O)c(=O)oc21'
p703
sI1578407
S'O=C(O)c1[nH]cnc1C(=O)Nc1ccc([N+](=O)[O-])cc1'
p704
sI267689
S'NNCCC(=O)O'
p705
sI685483
S'Cc1[nH]c(C(=O)O)c(C)c1C(C)O'
p706
sI685488
S'O=C(O)c1ccnc(C2CCCCC2=O)c1'
p707
sI777652
S'O=C(O)C1CCC(=O)N1C1CCCC1'
p708
sI75191
S'CC1(CC(=O)O)OC(=O)C2=C1CCCC2'
p709
sI1519033
S'O=C(O)C1=CN2CCN=C2C=C1'
p710
sI771517
S'CC(CNc1ccccc1O)C(=O)O'
p711
sI953791
S'CC1(CC(=O)O)C(=O)N=C2C=CC=CN21'
p712
sI1557954
S'Cc1ncc(CCC(=O)O)c(C=O)c1O'
p713
sI255427
S'O=C(O)C1Cc2cc(O)c(O)cc2CN1'
p714
sI390596
S'CC(=O)Nc1cnc(C(=O)O)cc1N'
p715
sI178517
S'O=C(O)C1N=C2C=C(O)C(=O)C=C2C1O'
p716
sI641612
S'CC(=O)C(N)C(=O)O'
p717
sI102647
S'COc1[nH]ncc1C(=O)O'
p718
sI810264
S'O=C(O)c1c[nH]nc1-c1cccc([N+](=O)[O-])c1'
p719
sI955856
S'Cc1cc(C(C)(C)C)oc1C(=O)O'
p720
sI9682
S'CC=C(NC(=O)C=C(C)C)C(=O)O'
p721
sI1060307
S'O=CN(O)C(CC(=O)O)C(=O)O'
p722
sI1289684
S'CC(C(=O)O)C(C)(O)C(=O)O'
p723
sI607701
S'O=C([O-])C(=O)OCC1OC(=O)C(O)C1O'
p724
sI1064407
S'NCOCCC(N)C(=O)O'
p725
sI1519064
S'O=C(O)c1cc(-c2ccccc2)nc2[nH]ncc21'
p726
sI748452
S'Cc1ccc(OC(C)C(=O)O)cc1C'
p727
sI1064410
S'[N-]=[N+]=CC(=O)CCC([NH3+])C(=O)[O-]'
p728
sI1342940
S'CC(NC(=O)c1ncccc1O)C(=O)O'
p729
sI320992
S'CC(C)CC1CC1(CN)C(=O)O'
p730
sI25168
S'CCOC(=O)NC(=N)NCCC(=O)O'
p731
sI398818
S'CCc1[nH]nc(C(=O)O)c1C'
p732
sI124848
S'O=C(O)c1cc2c(cc1O)ncn2-c1ccccc1'
p733
sI1025510
S'O=C(O)C1CCN(c2ncccn2)CC1'
p734
sI1547751
S'CC1(C(N)C(=O)O)CCC1C(=O)O'
p735
sI271849
S'Cn1c2cc(C(=O)O)nn2c(=O)c2cc(N)ccc21'
p736
sI288234
S'CC(=O)NCC(=O)NC(C(=O)O)C(C)O'
p737
sI1095147
S'O=C(O)c1nonc1-c1nonc1C(=O)O'
p738
sI113234
S'N#[N+]c1nccn1CC(=O)[O-]'
p739
sI513518
S'O=C(O)CNC(=O)C1CC1c1ccccc1'
p740
sI998653
S'Cc1ccc(OCc2occc2C(=O)O)cc1'
p741
sI105968
S'CC(C)C(C(=O)NO)C(=O)NCC(=O)O'
p742
sI40433
S'O=C([O-])c1cc(=O)c2c(o1)-c1ccccc1OC2'
p743
sI310867
S'C=CCC(CCC)C(=O)O'
p744
sI304382
S'O=C[O-]'
p745
sI1000953
S'Cc1cc(C(=O)O)c(C)n1C1CC1'
p746
sI384506
S'C=C=CCOc1ccc(C(=O)O)cc1'
p747
sI54186
S'COc1ccc(C(=O)O)c(Cc2ccco2)c1'
p748
sI226817
S'O=C([O-])C1CCCN1[N+]([O-])=N[O-]'
p749
sI1031683
S'Cc1cc(C(=O)NCc2cc(C(=O)O)co2)co1'
p750
sI181770
S'CCNC(=O)c1cc(=O)c(O)c(C(=O)O)o1'
p751
sI978795
S'COC(NC(N)=O)C(=O)O'
p752
sI413196
S'O=C(O)c1ncn(C2OC(CO)C(O)C2O)n1'
p753
sI1340674
S'O=CN(O)CC(=O)[O-]'
p754
sI162492
S'COC1=CC(=O)C(NC(CO)C(=O)O)=CC1=O'
p755
sI597527
S'O=C(O)CN=CC=CNCC(=O)O'
p756
sI921112
S'Cc1ccc2c(c1)NC(=O)C(CC(=O)O)O2'
p757
sI697882
S'O=C([O-])c1ccc[nH]1'
p758
sI63005
S'O=C(O)C(CO)N1Cc2ccccc2C1=O'
p759
sI9758
S'C=C(NC(=O)C1CC1(C)C)C(=O)O'
p760
sI790049
S'CN1CCN(C(=O)C=CC(=O)O)CC1'
p761
sI794147
S'O=C(O)c1cc(-c2ccc3c(c2)OCCO3)n[nH]1'
p762
sI380456
S'O=C(O)c1cn(C2CC2)c2ccccc2c1=O'
p763
sI40492
S'CC(N)C=CC(=O)O'
p764
sI196141
S'CC(C)C(N)(C(=O)O)C1CC1C(=O)O'
p765
sI1488432
S'CC(C)C12C=CC(C(=O)O)(CC1)OO2'
p766
sI499249
S'O=C(O)CCCNc1ncccc1[N+](=O)[O-]'
p767
sI9778
S'O=C(O)C(=Cc1ccccc1)NC(=O)CO'
p768
sI1420852
S'NCc1cocc1C(=O)O'
p769
sI1326646
S'C#CCC(N)(CO)C(=O)O'
p770
sI628279
S'CC=C(C(=O)O)N1C(=O)C=C(C)C1=O'
p771
sI183090
S'O=C([O-])Cc1cccc(-c2ccccc2)c1'
p772
sI839228
S'O=C(O)c1ccc2nc3c(nc2c1)-c1ccccc1C3=O'
p773
sI179773
S'NC(=NCC(N)C(=O)O)NO'
p774
sI390718
S'O=C(O)CNC(=O)C=Cc1ccc(O)c(O)c1'
p775
sI91716
S'Cc1cc(C)c2c(c1)NC(C(=O)O)CC2=O'
p776
sI935498
S'NCCc1c2cc([N+](=O)[O-])ccc2[nH]c1C(=O)O'
p777
sI1089099
S'Cc1c(C(=O)O)oc2c1C(=NO)CCC2'
p778
sI409164
S'N#Cc1ccc(NC(=O)c2cnccn2)c(C(=O)O)c1'
p779
sI44621
S'O=C(O)C1COC(c2ncccc2O)=N1'
p780
sI511566
S'CCn1cc(C(=O)O)c(=O)c2c1C(=O)C=CC2=O'
p781
sI1321685
S'CC(C(=O)O)C1Nc2ccccc2NC1=O'
p782
sI1310291
S'CO[N+]([O-])=CC(=O)NC=CC(=O)O'
p783
sI992232
S'O=C(O)c1cc2ncc(CCO)cn2n1'
p784
sI685327
S'CC1=C(C)C1C(=O)O'
p785
sI665182
S'O=C(O)c1ccc(C=CCn2ccnc2)cc1'
p786
sI1347168
S'CN1C=C(C(=O)O)C(=O)C2N=CC=CC21'
p787
sI253200
S'O=C(O)C(OCC(O)Cn1cncn1)C(=O)O'
p788
sI1347171
S'Cn1cnc(-c2nc(C(=O)O)c(O)c(=O)[nH]2)c1'
p789
sI1162853
S'O=C(O)CC(O)(Cc1ccc(O)cc1)C(=O)O'
p790
sI40017
S'O=C(O)Cc1cccc2c(=O)c3cccnc3oc12'
p791
sI761449
S'Nc1nonc1-c1nc2ccccc2n1CC(=O)O'
p792
sI775786
S'Cc1c(N)cc(N)cc1C(=O)O'
p793
sI1476205
S'Cc1onc(C(=O)NC2CC2)c1C(=O)O'
p794
sI63272
S'C=C(C)C1CNC(C(=O)O)C1C(=O)O'
p795
sI1476209
S'COC(=O)c1c(C)n(C)nc1C(=O)O'
p796
sI822898
S'Nc1cc(C(=O)O)nc(O)n1'
p797
sI61715
S'O=C(O)c1cc(O)c2c(c1)C(=O)c1cccc(O)c1C2=O'
p798
sI1369716
S'O=C(O)C1NC(CO)C(O)C(O)C1O'
p799
sI654965
S'CCCC[N+](C)(C)CC(=O)O'
p800
sI513449
S'Cc1cccc(C(=O)NCC(=O)O)c1'
p801
sI1062520
S'O=C(O)c1cccc(=O)n1O'
p802
sI24852
S'N=C(N)NOCC(=O)O'
p803
sI383336
S'O=C([O-])CC[N+](=O)[O-]'
p804
sI331389
S'O=C(O)C1CC2(C(=O)O)C=CC(O)C(C2)O1'
p805
sI1296001
S'O=C(O)c1c[nH]c2c3cccnc3ccc2c1=O'
p806
sI116356
S'O=C(O)c1cc(C(=O)O)c2cc3c(cc2n1)OCO3'
p807
sI702742
S'O=C(O)NCCc1ccccc1'
p808
sI37904
S'O=C(O)Cc1ccccc1Oc1ccccc1'
p809
sI624264
S'Nc1ncnc2c1ncn2CC(O)C(O)C(=O)O'
p810
sI956042
S'O=C(O)C(Cc1c[nH]nn1)=NO'
p811
sI251531
S'C[N+]1(CC(=O)O)CCCC1'
p812
sI1285772
S'C[N+](C)(C)C1(C(=O)[O-])CC1'
p813
sI46733
S'O=C(O)COC1CC(C(=O)O)=CC(O)C1O'
p814
sI870030
S'O=C(O)CC=CCC(=O)O'
p815
sI890513
S'CC1(C(=O)O)Cc2oncc2CC1C(=O)O'
p816
sI1004483
S'O=C(O)CCN1C(=O)c2ccncc2C1=O'
p817
sI291865
S'CN1C2CCC1C(C(=O)O)C(O)C2'
p818
sI564886
S'COC(=O)C(N)(CC(=O)O)CC(=O)O'
p819
sI929431
S'Cc1ncc(C(=O)O)c(C(=O)O)c1N'
p820
sI1490584
S'CC(=O)C1(N=Nc2ccc(C(=O)O)cc2)N=C1C'
p821
sI81565
S'O=C(O)C=Cc1ccoc1'
p822
sI914696
S'CC1Oc2ccccc2C=C1C=CC(=O)O'
p823
sI954016
S'CC1(C(=O)O)Oc2cccnc2NC1=O'
p824
sI513698
S'O=C(O)C(=O)CCCC(=O)C(=O)O'
p825
sI1246019
S'O=C(O)c1cccnc1Oc1ccccc1'
p826
sI892587
S'COc1cccc(-c2cc(C(=O)O)no2)c1'
p827
sI1001133
S'O=C(O)c1ccc(-n2nncc2-c2ccco2)cc1'
p828
sI241326
S'CC1(C(=O)O)C2CCC(N)(C(=O)O)C21'
p829
sI1046191
S'O=C(O)CCN1CCOCC1'
p830
sI890545
S'CC(=Cc1cc(C(=O)O)c(C)o1)CO'
p831
sI140978
S'CCC(C)C(=O)NC(CO)C(=O)O'
p832
sI1347251
S'CC(C)C(=O)C=C(O)C(=O)O'
p833
sI179893
S'CC(=O)Nc1cc([N+](=O)[O-])c(C(=O)O)c([N+](=O)[O-])c1O'
p834
sI314313
S'Cn1c(=O)c(O)c(C(=O)O)nc1-c1cccc(O)c1'
p835
sI54409
S'O=C(O)c1cc2c(c(C(=O)O)c1)NCCC2'
p836
sI1347257
S'Cn1c(C=C(O)C(=O)O)nc2ccccc21'
p837
sI378555
S'O=C(O)C(O)C(CCCCO)C(=O)O'
p838
sI724668
S'Cc1ccc2c(c1)N(CC(=O)O)C(=O)CO2'
p839
sI774896
S'O=C(O)CC(c1ccccc1)n1cnnn1'
p840
sI378560
S'CC(C)C(C(=O)O)C(O)C(=O)O'
p841
sI462112
S'C[n+]1cc2[nH]c3ccccc3c2cc1C(=O)[O-]'
p842
sI577219
S'CN1CC(C(=O)O)=Nc2c1nc(N)[nH]c2=O'
p843
sI609990
S'CC1(C)C=C(C(=O)O)C(C)(C)N1[O]'
p844
sI464583
S'COC1=CC(=O)OC(C=CC(=O)O)C1C'
p845
sI1316552
S'O=C(O)C1CCc2cc3c(cc21)C(=O)CC3'
p846
sI251593
S'O=C(O)CCC(=O)C1CCCCC1'
p847
sI1216204
S'COc1cc(=O)oc(CC(=O)C(=O)O)c1'
p848
sI503502
S'Cn1c(N)[n+](C)cc1CC(=O)[O-]'
p849
sI685005
S'C=C(NC(C)=O)C(=O)CCC(=O)O'
p850
sI1023697
S'O=C(O)c1cc(=O)n(Cc2ccccc2)c(=O)[nH]1'
p851
sI1095379
S'O=C(O)C=C1NC(=O)c2ccccc21'
p852
sI446166
S'COC(=O)C(CCC(=O)O)=C(C)C'
p853
sI1590905
S'CN1CCCC(C(=O)O)C1'
p854
sI1361188
S'O=C(O)c1cnn(-c2ccccc2)n1'
p855
sI106204
S'N#CC1=CCC(C(=O)O)C=C1'
p856
sI1298145
S'O=C(O)C=NN=c1[nH]c2ccccc2[nH]1'
p857
sI227042
S'Cn1c2ccccc2n2c1nnc(CC(=O)O)c2=O'
p858
sI1306339
S'COC1OC(C(=O)O)C2OC(C)(C)OC12'
p859
sI317734
S'CC(N)C(=O)N(C(=O)O)c1ccccc1'
p860
sI310908
S'CCCC(C)(CCC)C(=O)O'
p861
sI483623
S'C#CC#CC#CC=CC(=O)Nc1ccc(C(=O)O)cc1'
p862
sI554621
S'O=C(O)c1cccc(CO[N+](=O)[O-])n1'
p863
sI816880
S'Nc1c(C(=O)O)cnn1-c1ccc([N+](=O)[O-])cc1'
p864
sI332886
S'Cn1c(=O)ccn(CC(N)C(=O)O)c1=O'
p865
sI65267
S'O=C(O)c1cc2ccc(Cn3ccnc3)cc2[nH]1'
p866
sI182005
S'CC(C)(C)c1onc(O)c1C(N)C(=O)O'
p867
sI104182
S'CNCC(=O)O'
p868
sI237304
S'NC1C=CC(C(=O)O)C1'
p869
sI276218
S'COc1ccc(C(=O)O)cc1C1OC(=O)NC1=O'
p870
sI44796
S'COc1ccc2c(c1)C(C(C#N)C(=O)O)C(=O)N2'
p871
sI48894
S'C[N+](C)(C)CC(CC(=O)[O-])NC=O'
p872
sI294460
S'Cn1cc(O)c(=O)cc1C(=O)O'
p873
sI610048
S'CC1(C)CC(C(=O)O)C(C)(C)N1[O]'
p874
sI892675
S'O=C(O)c1c[nH]nc1-n1cnnn1'
p875
sI126728
S'O=C(O)c1cc[nH]c1'
p876
sI994438
S'CC1=CC=CC2=NC(=O)CC(C)(C(=O)O)N12'
p877
sI444170
S'CC1(C(=O)O)NCCc2cc(O)c(O)cc21'
p878
sI81676
S'O=C(O)C1C2CCC3(COC(=O)C13)O2'
p879
sI188175
S'O=C(O)c1ncoc1-c1ccccc1'
p880
sI1330284
S'Nc1ccccc1CC(O)C(=O)O'
p881
sI122642
S'N#CC(=Cc1ccc(O)cc1)C(=O)O'
p882
sI1080701
S'Cn1nc(C(=O)O)c2c1[nH]c(=O)n(C)c2=O'
p883
sI46872
S'O=C(O)C1=CC(C(C(=O)O)C(=O)O)CCC1'
p884
sI65305
S'NC1(C(=O)O)CC(n2oc(=O)[nH]c2=O)C1'
p885
sI345882
S'NCC(CC(=O)O)Cc1ccco1'
p886
sI841500
S'CC(=O)c1c(C)nn(CCC(=O)O)c1C'
p887
sI282401
S'O=C(O)C1=CC(=O)C2C=CC(O)=CC2O1'
p888
sI876322
S'O=C(O)C1(O)c2ccccc2-c2ccccc21'
p889
sI81699
S'CC12CCC(C)(O1)C(C(=O)[O-])C2C(=O)[O-]'
p890
sI1001252
S'O=C(O)C1=NN(c2ccccc2)C(=O)C1'
p891
sI1034024
S'O=C(O)c1ccn(Cn2cnc3ccccc32)n1'
p892
sI1310505
S'O=C(O)C1CCC(=O)C2=C1CCCC2'
p893
sI1122090
S'O=C(O)C=CC(=O)CC(=O)CC(=O)O'
p894
sI1589035
S'CN(C)c1ccc2cc(C(=O)O)c(=O)oc2c1'
p895
sI12079
S'O=C(O)c1cn2c(ccc3cc([N+](=O)[O-])ccc32)n1'
p896
sI665393
S'O=C(O)C#CCCCCCn1ccnc1'
p897
sI380722
S'O=C(O)c1cccn2c1nc1c2C(=O)C(=O)c2cccnc2-1'
p898
sI665395
S'O=C(O)CCCCC=C=Cn1ccnc1'
p899
sI503604
S'Cc1cc(C(=O)O)cc2c1CCC2C'
p900
sI32565
S'CC(NC(=O)OCc1cc(=O)c(O)co1)C(=O)O'
p901
sI565046
S'O=C(O)C=NOCc1ccccc1'
p902
sI77623
S'O=C(O)c1ccc(CC2CCC2)nc1O'
p903
sI333625
S'Cc1cc([N+](=O)[O-])ccc1-c1ccc(C(=O)O)o1'
p904
sI1148730
S'O=C(O)C1Cc2cncn2C(=O)N1'
p905
sI1234749
S'CCn1cc(C2=NOC(C(=O)O)C2)c(C)n1'
p906
sI743231
S'COc1coc(C=CC(=O)O)cc1=O'
p907
sI975708
S'CC(N)(C=Cc1ccccc1)C(=O)O'
p908
sI446274
S'O=C(O)Cc1ccc(O)c([N+](=O)[O-])c1'
p909
sI808772
S'N#Cc1cn(CC(=O)O)c2ccccc12'
p910
sI392161
S'CCc1ccc2c(CC(=O)O)c[nH]c2c1'
p911
sI1269577
S'N=C(N)NC1CCC(O)(C(=O)O)C1'
p912
sI73547
S'NCC1CCC(C(=O)O)CC1'
p913
sI1236813
S'Cc1cc([N+](=O)[O-])nn1CCCC(=O)O'
p914
sI501389
S'O=C(O)c1ncccc1OC(=O)c1ccco1'
p915
sI1003346
S'O=C(O)C=Cc1nnc2c3ccccc3cnn12'
p916
sI851795
S'CC(C)c1nccn1CCC(=O)O'
p917
sI253784
S'O=C(O)C=CC(=O)n1ccc2ccccc21'
p918
sI12121
S'O=C(O)c1nnn2c1c(O)nc1ccccc12'
p919
sI780126
S'CC(N)(C(=O)O)c1ccc(-c2nnn[nH]2)cc1'
p920
sI1081183
S'Cn1cc(-c2cc(C(=O)O)on2)cn1'
p921
sI1320251
S'O=C(O)C1CC2CC(=O)C1C2'
p922
sI71524
S'CCOC(=O)CC(C(=O)O)n1ccnc1'
p923
sI708455
S'CNC(=O)c1nc(-c2ccccc2)[nH]c1C(=O)O'
p924
sI1066856
S'O=C(O)C1=NC(C(=O)O)CC(O)C1'
p925
sI227177
S'NCCC(CN)C(=O)O'
p926
sI643047
S'O=C(O)C1CCC=N1'
p927
sI411502
S'N#CC1(C(=O)O)CC1'
p928
sI685373
S'C=CC(=O)O'
p929
sI87921
S'COc1ccccc1NC1=C(C(=O)O)C(=O)CO1'
p930
sI513908
S'O=C(O)c1cnn2c1n[n+]([O-])c1cnccc12'
p931
sI1350974
S'O=C(O)CCC1=CCOC1=O'
p932
sI335734
S'O=C(O)C1CC2CC1C(C(=O)O)N2'
p933
sI1529719
S'O=C(O)CC1CNNC1C(=O)O'
p934
sI333689
S'O=C(O)C(=O)Nc1cc2ccccc2cc1C(=O)O'
p935
sI546682
S'NCC1CC1(C(=O)O)c1ccccc1'
p936
sI223100
S'O=C(O)CC(NC(=O)c1ccccc1)C(=O)[O-]'
p937
sI479101
S'O=C(O)c1cc(CO)cc(C(=O)O)c1'
p938
sI872318
S'C#CCOC(=O)C1C2C=CC(C2)C1C(=O)O'
p939
sI376705
S'O=C(O)CCCC(=O)c1ccc(O)c(O)c1O'
p940
sI22402
S'[N-]=[N+]=Nc1cccc(C(=O)CC(=O)C(=O)O)c1'
p941
sI530411
S'CC(=O)c1c(CC(=O)O)c2ccccc2n1O'
p942
sI259972
S'O=C(O)c1cc(=O)n2c(n1)oc1ccccc12'
p943
sI1296261
S'CN(CC(=O)O)c1ncc2c(n1)C=CCC2'
p944
sI333704
S'C#CCOc1ccccc1-c1ccc(C(=O)O)o1'
p945
sI643052
S'NC(CC1CCC(=O)C2OC21)C(=O)O'
p946
sI962442
S'O=C(O)CCCNC(=O)c1cncc(O)c1'
p947
sI1324941
S'O=C(O)C1(C(=O)O)CC(=O)C=C2CCCC21'
p948
sI44596
S'NC1(C(=O)O)CC1c1cccc(O)c1'
p949
sI884629
S'O=C(O)c1ccc2c(c1)C(=O)N(Cc1ccco1)C2=O'
p950
sI1241566
S'O=C(O)Cc1cc(=O)[nH]n(-c2ccccc2)c1=O'
p951
sI422212
S'O=C(O)C(=NO)c1cccc(C(=NO)C(=O)O)c1'
p952
sI329628
S'Cc1coc(C)c1C(O)=CC(=O)C(=O)O'
p953
sI559429
S'COc1ccc2c(c1)-c1onc(C(=O)O)c1CC2'
p954
sI1227760
S'O=C(O)C#Cc1cccc2ccccc12'
p955
sI1064262
S'Cc1ccc(C=C(C(=O)O)c2ccccc2)o1'
p956
sI97265
S'CC(C(=O)O)n1c(=O)ccc2cccc(O)c21'
p957
sI262057
S'O=C(O)C1CC(O)C(O)C(C(O)CO)O1'
p958
sI1263532
S'CNC(C)(C)C(=O)O'
p959
sI300973
S'O=C(O)c1nc(=O)[nH]c(=O)[nH]1'
p960
sI688046
S'CN(CC(=O)O)C(=O)CNC(=O)CN'
p961
sI462768
S'O=C(O)CCNc1ncnc2[nH]c(=O)[nH]c21'
p962
sI63409
S'COc1c(C(=O)O)oc2c3ccccc3n(C)c12'
p963
sI1169330
S'CC(O)CCCC=CC=CC(=O)O'
p964
sI936265
S'O=C(O)c1ccc(C=NNc2ccccn2)cc1'
p965
sI642036
S'O=C(O)C1(O)CC(=O)C(O)C(O)C1'
p966
sI77754
S'COC(=O)C=CC(=O)NC(N)C(=O)O'
p967
sI446395
S'CCC=C1C=C(C=CC(=O)O)C(=O)O1'
p968
sI1152957
S'CCCCCC(C)C(=O)O'
p969
sI94142
S'CC(Nc1ccc(C(=O)O)cc1)C(=O)O'
p970
sI677823
S'NC(=Nc1ccc(OCC(=O)O)cc1)NO'
p971
sI126912
S'O=C(O)c1ccccc1C(=O)n1ccnc1'
p972
sI667589
S'CC1=CC(C(=O)O)C(N)C1'
p973
sI643063
S'O=C(O)C1=C(c2ccccc2)CC2CC(=O)N12'
p974
sI141265
S'NC1CCN(CC(=O)O)C1=O'
p975
sI1353682
S'CCC12CC1c1[nH]nc(C(=O)O)c1C2'
p976
sI1318079
S'O=C(O)c1ccc(NNc2cc(=O)[nH]c(=O)[nH]2)cc1'
p977
sI272344
S'O=C(O)c1cc2nc3cc(C(=O)O)ccc3c(O)n2n1'
p978
sI838308
S'Cn1cc([N+](=O)[O-])c(C(=O)NCC(=O)O)n1'
p979
sI141274
S'CC(C)=CC(CN)CC(=O)O'
p980
sI229343
S'NC(CN=c1c(O)c(O)c1=O)C(=O)O'
p981
sI1589216
S'Cc1ccccc1-c1noc(CCC(=O)O)n1'
p982
sI82256
S'O=C([O-])c1cc(O)c2cc3c(=O)cc(C(=O)[O-])oc3cc2n1'
p983
sI65507
S'O=C(O)COc1noc2c1CC(C(=O)O)NC2'
p984
sI1173478
S'CC(=O)N(O)CCCC(=O)O'
p985
sI194535
S'O=C(O)c1nc2cc(-n3ccnc3)c([N+](=O)[O-])cc2nc1O'
p986
sI1028571
S'CC(=O)C(=Cc1ccc(C(=O)O)cc1)C(C)=O'
p987
sI1173483
S'CC(=O)N(O)CCc1c(C)onc1C(=O)O'
p988
sI774124
S'CC(C=Cc1ccco1)=CC(=O)[O-]'
p989
sI774125
S'COc1ccc2c(cc(C(=O)O)n2C)c1'
p990
sI1329134
S'O=C(O)C1=NN=C(C(=O)O)NN1'
p991
sI317437
S'CC=Cc1ccc(C(C)C(=O)O)cc1'
p992
sI274416
S'O=C(O)CC1=C(c2ccco2)CNC1C(=O)O'
p993
sI735230
S'COCc1ccc2oc(C(=O)O)cc2c1'
p994
sI1034230
S'O=C(O)c1cnccc1O'
p995
sI833527
S'Cc1[nH]c2ccc(C)cc2c1CC(=O)O'
p996
sI209974
S'Cc1ccc2c(c1)c(C)c(O)c(O)c2C(=O)O'
p997
sI1478653
S'Cc1cc(=O)n2c3cc(C(=O)O)ccc3[nH]c2c1C#N'
p998
sI567294
S'O=C(O)C1COCCN1c1ncnc2[nH]cnc21'
p999
sI223231
S'O=C(O)C=Cn1cnc2ccc(O)cc2c1=O'
p1000
s.