(dp0
I164354
S'NC1=NCC(CC(N)C(=O)O)C1'
p1
sI1177604
S'N=C(N)NCC1CC1C(N)C(=O)O'
p2
sI181770
S'CCNC(=O)c1cc(=O)c(O)c(C(=O)O)o1'
p3
sI88589
S'C=C(CC(=O)CC#N)C(=O)O'
p4
sI217615
S'O=C(O)C1NCC2ONC(=O)C21'
p5
sI253784
S'O=C(O)C=CC(=O)n1ccc2ccccc21'
p6
sI971287
S'CC(C)(C(=O)O)n1cncn1'
p7
sI1307160
S'O=C(O)C1CC2C=CCC(C2)C1'
p8
sI291865
S'CN1C2CCC1C(C(=O)O)C(O)C2'
p9
sI143898
S'CC(N)(Cn1c(=O)[nH]oc1=O)C(=O)O'
p10
sI113187
S'N#[N+]C1N=C(CC(=O)[O-])C[N-]1'
p11
sI370950
S'CC1(C2=CCCC2)OC(C(=O)O)=CC1=O'
p12
sI1430054
S'CC(C)(CCCCO[N+](=O)[O-])C(=O)O'
p13
sI157223
S'Cn1nnc(-c2onc(O)c2CC(N)C(=O)O)n1'
p14
sI179756
S'NC(=NCCCC(N)C(=O)O)NO'
p15
sI461869
S'C=CC(C)(O)CCC=C(C)C(=O)O'
p16
sI1488432
S'CC(C)C12C=CC(C(=O)O)(CC1)OO2'
p17
sI106546
S'O=C(O)C(CC1CNC1)c1c[nH]cn1'
p18
sI1347251
S'CC(C)C(=O)C=C(O)C(=O)O'
p19
sI349236
S'O=C(O)C(CO)NC(=O)C1CCCN1'
p20
sI52791
S'CC1CCC(=NN)c2ncc(C(=O)O)c(=O)n21'
p21
sI5176
S'CC=C1OC2CC(=O)N2C1C(=O)[O-]'
p22
sI904249
S'O=C(O)C1CN2CCC1CC2'
p23
sI195642
S'O=C(O)C=CC=Cc1ccc2c(c1)OCO2'
p24
sI593471
S'Nc1ccc2c(c1)C(=O)N(CCC(=O)O)C2'
p25
sI64576
S'COC=CC(N)C(=O)O'
p26
sI390209
S'O=C(O)C1CC2(CN1)CC(O)=NO2'
p27
sI1276482
S'O=C([O-])CCc1cccc2c1C(O)OC2'
p28
sI1323075
S'CC=C1CNC1C(=O)O'
p29
sI1594948
S'NC1(C(=O)O)CC2CCC(C2)C1'
p30
sI1120837
S'O=C(O)C[n+]1ccccc1.c1ccncc1'
p31
sI1321032
S'O=C(O)C12C=CC(C1)c1ccccc12'
p32
sI409164
S'N#Cc1ccc(NC(=O)c2cnccn2)c(C(=O)O)c1'
p33
sI251981
S'Cc1cc(O)oc2nnc(CC(=O)O)c1-2'
p34
sI356430
S'N#CC(C#N)=Cc1ccc(-c2ccccc2C(=O)O)o1'
p35
sI46159
S'C=CCCCCNN=C(C)C(=O)[O-]'
p36
sI25168
S'CCOC(=O)NC(=N)NCCC(=O)O'
p37
sI27217
S'NNC(=NCC(=O)O)NN'
p38
sI1310291
S'CO[N+]([O-])=CC(=O)NC=CC(=O)O'
p39
sI27222
S'O=C(O)C=NNC1=NCCN1'
p40
sI33807
S'O=C(O)c1cccn1Nc1ccc(O)cc1'
p41
sI1302620
S'O=C(O)CC12C3C4C5C3C1C5C42'
p42
sI1166010
S'O=C(O)C(O)C1OC(=O)C(O)C1O'
p43
sI576096
S'O=C(O)CC[n+]1cccc(C=NO)c1'
p44
sI53857
S'O=C(O)c1cc([N+](=O)[O-])cc2c1NCCO2'
p45
sI40017
S'O=C(O)Cc1cccc2c(=O)c3cccnc3oc12'
p46
sI1004647
S'N#CC(C(=O)O)=C1CCCC1'
p47
sI664680
S'O=C(O)C=CC=CCCCn1ccnc1'
p48
sI995436
S'CCOC(=O)C1=C(C)NC(=O)C1CC(=O)O'
p49
sI499823
S'O=C(O)C1OC(O)C(O)C(O)C1O'
p50
sI787058
S'O=C(O)CCc1nnc2cnc3ccccc3n21'
p51
sI574585
S'O=C(O)c1c(-c2ccccc2)no[n+]1[O-]'
p52
sI275578
S'O=NN1CC(O)CC1C(=O)O'
p53
sI1094267
S'O=C([O-])c1cc(-c2cccnc2)nc2ccccc21'
p54
sI27261
S'NC(=NN=CC(=O)O)N[N+](=O)[O-]'
p55
sI601217
S'CC#CC(O)(CCO)CC(=O)O'
p56
sI742021
S'COc1ccc(N(CC(=O)O)N=O)cc1'
p57
sI624264
S'Nc1ncnc2c1ncn2CC(O)C(O)C(=O)O'
p58
sI956042
S'O=C(O)C(Cc1c[nH]nn1)=NO'
p59
sI302219
S'N=C(N)c1ccc(C(=O)O)cc1'
p60
sI251532
S'C[N+]1(CC(=O)O)CCOCC1'
p61
sI1297550
S'CC(=O)OC(=C(C#N)C#N)c1nccnc1C(=O)O'
p62
sI130192
S'O=C([O-])CN1CCCN=C2C(=O)C(O)=C21'
p63
sI272532
S'CNc1cccc(NC(=O)C(=O)[O-])c1C#N'
p64
sI554032
S'C[N+](C)(C)C(C(=O)[O-])c1ccccc1'
p65
sI547485
S'C=C=C1CC(N)C(C(=O)O)C1'
p66
sI773281
S'O=C(O)C1CCC2(C1)NC(=O)NC2=O'
p67
sI793766
S'CC(=O)N1CC=CC1(C)C(=O)O'
p68
sI183464
S'O=C(O)CCC1=CCNCC1'
p69
sI70830
S'CC(=O)Oc1ccc(N2C(=O)C=CC2=O)cc1C(=O)O'
p70
sI544431
S'O=C(O)CC1CNC2(CC2)CO1'
p71
sI1622195
S'NCC(=Cc1ccc(O)c(O)c1)C(=O)O'
p72
sI58549
S'CCC1CCCC(C(=O)O)O1'
p73
sI931511
S'Cc1c(-c2cc(C(=O)O)on2)cnn1C'
p74
sI667834
S'Cc1ccc(O)c(C2=NC(C(=O)O)CC2)c1'
p75
sI162492
S'COC1=CC(=O)C(NC(CO)C(=O)O)=CC1=O'
p76
sI972989
S'Cc1nc2nc(CC(=O)O)nn2c(O)c1[N+](=O)[O-]'
p77
sI90816
S'COCOC(C)C(=O)C(=O)O'
p78
sI577219
S'CN1CC(C(=O)O)=Nc2c1nc(N)[nH]c2=O'
p79
sI464583
S'COC1=CC(=O)OC(C=CC(=O)O)C1C'
p80
sI142536
S'COc1c(O)cc(C(=O)O)cc1C#N'
p81
sI88265
S'CC1OC(Nc2ccccc2)=C(C(=O)O)C1=O'
p82
sI367240
S'O=C(O)c1cnn(-c2ccc(-c3cncnc3)cn2)c1'
p83
sI386850
S'Cn1nnc2c1ccc1c(=O)c(C(=O)O)c[nH]c21'
p84
sI503502
S'Cn1c(N)[n+](C)cc1CC(=O)[O-]'
p85
sI73081
S'C=CC=CNC(=O)OCC(=O)O'
p86
sI44765
S'O=C(O)CCON=CC1CCC1'
p87
sI971486
S'CC(=O)NC(=Cc1ccc([N+](=O)[O-])cc1)C(=O)O'
p88
sI253155
S'CCC(C(N)=O)N1CC(C(=O)O)CC1=O'
p89
sI682724
S'Cn1cc(C2Cc3[nH]nc(C(=O)O)c3C2)cn1'
p90
sI311525
S'C=C1C(=O)C2(C(=O)O)CCC1C2(C)C'
p91
sI412393
S'O=C(O)C1NCCc2c3cc(O)ccc3[nH]c21'
p92
sI895722
S'CC(=NNc1nnc(C)c(O)n1)C(=O)O'
p93
sI1294059
S'N#Cc1c2[nH]c3ccccc3n2c(=O)cc1CC(=O)O'
p94
sI773359
S'O=C(O)c1cccc(-n2cccc2C=C[N+](=O)[O-])c1'
p95
sI1309941
S'O=C(O)CCC1C(=O)C2CCN1CC2'
p96
sI102647
S'COc1[nH]ncc1C(=O)O'
p97
sI44796
S'COc1ccc2c(c1)C(C(C#N)C(=O)O)C(=O)N2'
p98
sI48894
S'C[N+](C)(C)CC(CC(=O)[O-])NC=O'
p99
sI610048
S'CC1(C)CC(C(=O)O)C(C)(C)N1[O]'
p100
sI754946
S'Cc1nn(C(C)C(=O)O)c(=O)c2ccccc12'
p101
sI1384710
S'CC(C)CNC(=O)C1NC1C(=O)O'
p102
sI471815
S'O=C(O)CCCNc1n[nH]c(=O)[nH]c1=O'
p103
sI893321
S'CC1(C)CC(=O)CC(=NCC(=O)O)C1'
p104
sI446167
S'C=C(C)C(CCC(=O)OC)C(=O)O'
p105
sI81676
S'O=C(O)C1C2CCC3(COC(=O)C13)O2'
p106
sI834832
S'O=C(O)C1C2CC2CN1c1ncccc1[N+](=O)[O-]'
p107
sI1309466
S'O=C(O)C1(Cn2cccn2)CC1'
p108
sI1064410
S'[N-]=[N+]=CC(=O)CCC([NH3+])C(=O)[O-]'
p109
sI278814
S'O=Cc1ccc(CO)n1CCCC(=O)O'
p110
sI375583
S'CC(=O)NC1=CC(=O)c2ccc(C(=O)O)nc2C1=O'
p111
sI126240
S'CC1=C(C(=O)O)CNC1'
p112
sI282401
S'O=C(O)C1=CC(=O)C2C=CC(O)=CC2O1'
p113
sI193314
S'O=CN(O)CC(=O)O'
p114
sI190756
S'O=CO'
p115
sI1422632
S'[N-]=[N+]=NC1CC(n2ccc(=O)[nH]c2=O)OC1C(=O)O'
p116
sI237868
S'Nc1c(=O)c(=O)c1NCC(=O)[O-]'
p117
sI702765
S'O=C(O)CC1NCc2cc3ccccc3nc21'
p118
sI1301295
S'Cc1c(C(=O)O)n(C)c(=O)n(C)c1=O'
p119
sI1088304
S'O=C(O)C(O)C(O)c1nc2ccccc2[nH]1'
p120
sI1351816
S'O=C(O)c1cc(=O)n(O)c2c1CCC2'
p121
sI26930
S'CC(C)=NNC(=N)NNCC(=O)O'
p122
sI684853
S'CC(=O)c1c(=O)oc(C)c(C(=O)O)c1O'
p123
sI565046
S'O=C(O)C=NOCc1ccccc1'
p124
sI1500471
S'COc1cccc2oc(C(=O)O)c(C)c21'
p125
sI1370424
S'O=C(O)C1CC1C(=O)NNC(=O)c1ccncc1'
p126
sI1148730
S'O=C(O)C1Cc2cncn2C(=O)N1'
p127
sI361610
S'Nc1n[nH]c(N)c1N=Nc1ccccc1C(=O)O'
p128
sI685374
S'C#CC(=O)O'
p129
sI595271
S'NCC(N)C(=O)N1CCCC1C(=O)O'
p130
sI617807
S'CC(C)(O)C1CC=C(C(=O)O)CC1'
p131
sI851795
S'CC(C)c1nccn1CCC(=O)O'
p132
sI12174
S'O=C(O)c1nc2n(c1CO)-c1ccccc1OC2'
p133
sI178465
S'CC1(C(=O)O)CC2=CC(=O)C(O)=CC2=N1'
p134
sI1142103
S'O=C(O)C=Cc1cccc2c(=O)[nH]ccc12'
p135
sI367960
S'O=C(O)c1cc2oc(=O)c3cc(O)c(O)cc3c2c(=O)o1'
p136
sI559451
S'Cc1cccc(OC(C)(C)C(=O)O)c1'
p137
sI768348
S'O=C(O)CC(NC(=O)c1ccco1)c1ccco1'
p138
sI160605
S'C=C(OC1C=CC=CC1O)C(=O)[O-]'
p139
sI432484
S'C=CCC(C[N+](=O)[O-])C(=O)O'
p140
sI545637
S'O=C(O)C1NCC12CCCCC2'
p141
sI1175911
S'O=C(O)C(O)=CC(=O)c1cccc(-c2nnn[nH]2)c1'
p142
sI383336
S'O=C([O-])CC[N+](=O)[O-]'
p143
sI194535
S'O=C(O)c1nc2cc(-n3ccnc3)c([N+](=O)[O-])cc2nc1O'
p144
sI1322898
S'CC(=Cc1c(C)[nH]c(=O)[nH]c1=O)C(=O)O'
p145
sI58344
S'CC(C)(C)OC(=O)C1CC(C(=O)O)N1'
p146
sI1342409
S'CC(Oc1ncc(C(N)=O)c(N)n1)C(=O)O'
p147
sI376696
S'O=Cc1c(O)cc(O)cc1C(=O)O'
p148
sI1143956
S'O=C(O)C=CC(=O)OC1CCCCC1'
p149
sI1214330
S'COC(=O)NC1(C(=O)O)CCCC1'
p150
sI338302
S'CC(=O)NC1NCC(C(=O)O)C(O)C1O'
p151
sI22402
S'[N-]=[N+]=Nc1cccc(C(=O)CC(=O)C(=O)O)c1'
p152
sI1296261
S'CN(CC(=O)O)c1ncc2c(n1)C=CCC2'
p153
sI222089
S'O=C(O)C12CCC(=O)N1CC(=O)N2'
p154
sI565134
S'CC=CC=CC=CC(=O)[O-]'
p155
sI629648
S'Cc1cn2ccc3[nH]c(C(=O)O)cc3c2n1'
p156
sI1314194
S'CC(CN1CCCC1)C(=O)O'
p157
sI1610137
S'[NH3+]C(CO)(CO)C(=O)[O-]'
p158
sI211864
S'O=C(O)C1CC(OCc2nn[nH]n2)CCN1'
p159
sI106052
S'CCC1=CC=CC(C(=O)O)C1'
p160
sI1610139
S'O=C([O-])C12CCC[NH+]1CCC2'
p161
sI329628
S'Cc1coc(C)c1C(O)=CC(=O)C(=O)O'
p162
sI567198
S'NCCCC(=O)NCC(=O)O'
p163
sI1316428
S'O=C(O)Cc1cc(=O)[nH]c2c1C(=O)CCC2'
p164
sI1615266
S'Cc1cc(C(C)C)c(C(=O)O)c(N)[n+]1[O-]'
p165
sI78243
S'CC(C)Cc1ccc(C(=O)O)c(O)n1'
p166
sI504740
S'CC(=O)O.O=C1C(CO)=CC(O)C2OC12'
p167
sI1578406
S'O=C(O)c1[nH]cnc1C(=O)Nc1ccccn1'
p168
sI199591
S'NC(Cn1cc([N+](=O)[O-])c(=O)[nH]c1=O)C(=O)O'
p169
sI141224
S'CCCC=CC(CN)CC(=O)O'
p170
sI295850
S'Nc1nc2c(c(O)n1)C(CNCC(=O)O)C=N2'
p171
sI9543
S'CC=C(NC(=O)C1C(C)C1C)C(=O)O'
p172
sI300973
S'O=C(O)c1nc(=O)[nH]c(=O)[nH]1'
p173
sI730032
S'Cc1nn(C)c(C)c1C=CC(=O)O'
p174
sI1519033
S'O=C(O)C1=CN2CCN=C2C=C1'
p175
sI764859
S'O=C(O)c1ccc(CN2CCOCC2)o1'
p176
sI953791
S'CC1(CC(=O)O)C(=O)N=C2C=CC=CN21'
p177
sI468418
S'NC(C(=O)O)c1ccnn1O'
p178
sI388035
S'CC(C(=O)O)c1cccc(C(=O)c2ncco2)c1'
p179
sI412748
S'CCCC1CCc2c(C(=O)O)[nH]nc21'
p180
sI905677
S'O=C(O)C=CC(=O)Nc1ccc2nccnc2c1'
p181
sI97233
S'O=C(O)Cn1c(=O)ccc2cc(O)ccc21'
p182
sI762323
S'CC(=O)c1coc2ccc(OCC(=O)O)cc12'
p183
sI287700
S'CC(=O)NC(C)C(=O)NC(C)C(=O)O'
p184
sI63959
S'O=C(O)CCC(=O)OCC1=CC(=O)C=CC1=O'
p185
sI1378776
S'O=C([O-])C(O)C(O)C(O)C(O)C(O)CO'
p186
sI181722
S'NC1(C(=O)O)CCCCc2onc(O)c21'
p187
sI392156
S'CCc1ccc2[nH]cc(CC(=O)O)c2c1'
p188
sI320993
S'NCC1(C(=O)O)CC12CCC2'
p189
sI57766
S'CNC(C(=O)O)c1cc(O)no1'
p190
sI1319399
S'O=C([O-])C(Cc1cnc[nH]1)[N-]C(=O)CCN[Zn+2]'
p191
sI992232
S'O=C(O)c1cc2ncc(CCO)cn2n1'
p192
sI765417
S'O=C(O)Cn1cc2c(n1)CCCCC2'
p193
sI1173483
S'CC(=O)N(O)CCc1c(C)onc1C(=O)O'
p194
sI1334253
S'NC(N)=NC(=O)c1ncc(NCC(=O)O)nc1N'
p195
sI40433
S'O=C([O-])c1cc(=O)c2c(o1)-c1ccccc1OC2'
p196
sI644083
S'CCCC(=O)C(=O)O'
p197
sI41460
S'COC1=C(C(=O)[O-])N2C(=O)C(C(C)O)C2C1'
p198
sI226296
S'CC(CN)C(C)(CN)C(=O)O'
p199
sI567294
S'O=C(O)C1COCCN1c1ncnc2[nH]cnc21'
p200
s.