(dp0
I282401
S'O=C(O)C1=CC(=O)C2C=CC(O)=CC2O1'
p1
sI1368482
S'CCC1COC(CC(=O)O)CN1'
p2
sI630052
S'[N-]=[N+]=CC(=O)OCC(N)C(=O)O'
p3
sI1340777
S'O=C([O-])Cn1ccc(=O)c2c([N+](=O)[O-])cccc21'
p4
sI668778
S'C=C=C1CC(N)C(C(=O)O)C1'
p5
sI1310291
S'CO[N+]([O-])=CC(=O)NC=CC(=O)O'
p6
sI1473336
S'Cn1c2c(nc3[nH]nc(C(=O)O)c(=O)n32)c(=O)n(C)c1=O'
p7
sI333689
S'O=C(O)C(=O)Nc1cc2ccccc2cc1C(=O)O'
p8
sI1610139
S'O=C([O-])C12CCC[NH+]1CCC2'
p9
sI304382
S'O=C[O-]'
p10
s.