(dp0
S'monodentate_487660'
p1
S'Generated'
p2
sS'four-bridge_285805'
p3
S'Generated'
p4
sS'four-bridge_1316428'
p5
S'Generated'
p6
sS'monodentate_27217'
p7
S'Generated'
p8
sS'monodentate_1488432'
p9
S'Generated'
p10
sS'four-bridge_754946'
p11
S'Generated'
p12
sS'four-bridge_73081'
p13
S'Generated'
p14
sS'monodentate_226296'
p15
S'Generated'
p16
sS'monodentate_1578406'
p17
S'Generated'
p18
sS'bidentate_412748'
p19
S'Generated'
p20
sS'three-bridge_664680'
p21
S'Generated'
p22
sS'two-bridge_896353'
p23
S'Generated'
p24
sS'monodentate_44765'
p25
S'Generated'
p26
sS'four-bridge_183464'
p27
S'Generated'
p28
sS'two-bridge_13450'
p29
S'Generated'
p30
sS'monodentate_210209'
p31
S'Generated'
p32
sS'four-bridge_253155'
p33
S'Generated'
p34
sS'bidentate_487736'
p35
S'Generated'
p36
sS'two-bridge_64576'
p37
S'Generated'
p38
sS'four-bridge_953791'
p39
S'Generated'
p40
sS'two-bridge_264834'
p41
S'Generated'
p42
sS'bidentate_157223'
p43
S'Generated'
p44
sS'bidentate_1214330'
p45
S'Generated'
p46
sS'four-bridge_1594948'
p47
S'Generated'
p48
sS'bidentate_1175911'
p49
S'Generated'
p50
sS'monodentate_211864'
p51
S'Generated'
p52
sS'four-bridge_554032'
p53
S'Generated'
p54
sS'bidentate_73081'
p55
S'Generated'
p56
sS'three-bridge_217615'
p57
S'Generated'
p58
sS'three-bridge_1166010'
p59
S'Generated'
p60
sS'monodentate_144348'
p61
S'Generated'
p62
sS'bidentate_164354'
p63
S'Generated'
p64
sS'two-bridge_577219'
p65
S'Generated'
p66
sS'monodentate_1322898'
p67
S'Generated'
p68
sS'two-bridge_1334253'
p69
S'Generated'
p70
sS'three-bridge_412643'
p71
S'Generated'
p72
sS'three-bridge_412646'
p73
S'Generated'
p74
sS'two-bridge_464583'
p75
S'Generated'
p76
sS'three-bridge_198761'
p77
S'Generated'
p78
sS'four-bridge_823035'
p79
S'Generated'
p80
sS'bidentate_793766'
p81
S'Generated'
p82
sS'two-bridge_931511'
p83
S'Generated'
p84
sS'two-bridge_651514'
p85
S'Generated'
p86
sS'three-bridge_905677'
p87
S'Generated'
p88
sS'four-bridge_130192'
p89
S'Generated'
p90
sS'bidentate_190756'
p91
S'Generated'
p92
sS'three-bridge_1122075'
p93
S'Generated'
p94
sS'four-bridge_275578'
p95
S'Generated'
p96
sS'four-bridge_78243'
p97
S'Generated'
p98
sS'four-bridge_1142103'
p99
S'Generated'
p100
sS'monodentate_1060299'
p101
S'Generated'
p102
sS'monodentate_1334253'
p103
S'Generated'
p104
sS'two-bridge_554032'
p105
S'Generated'
p106
sS'two-bridge_25168'
p107
S'Generated'
p108
sS'three-bridge_1383557'
p109
S'Generated'
p110
sS'monodentate_412646'
p111
S'Generated'
p112
sS'bidentate_222089'
p113
S'Generated'
p114
sS'monodentate_412643'
p115
S'Generated'
p116
sS'three-bridge_89389'
p117
S'Generated'
p118
sS'two-bridge_90108'
p119
S'Generated'
p120
sS'three-bridge_338302'
p121
S'Generated'
p122
sS'three-bridge_16932'
p123
S'Generated'
p124
sS'monodentate_1122075'
p125
S'Generated'
p126
sS'four-bridge_1062471'
p127
S'Generated'
p128
sS'four-bridge_1062475'
p129
S'Generated'
p130
sS'monodentate_1446780'
p131
S'Generated'
p132
sS'bidentate_272532'
p133
S'Generated'
p134
sS'three-bridge_346231'
p135
S'Generated'
p136
sS'two-bridge_179756'
p137
S'Generated'
p138
sS'monodentate_489703'
p139
S'Generated'
p140
sS'monodentate_489702'
p141
S'Generated'
p142
sS'monodentate_489701'
p143
S'Generated'
p144
sS'three-bridge_547485'
p145
S'Generated'
p146
sS'two-bridge_565134'
p147
S'Generated'
p148
sS'bidentate_1383557'
p149
S'Generated'
p150
sS'four-bridge_1144985'
p151
S'Generated'
p152
sS'four-bridge_64576'
p153
S'Generated'
p154
sS'four-bridge_338302'
p155
S'Generated'
p156
sS'three-bridge_953791'
p157
S'Generated'
p158
sS'two-bridge_1315661'
p159
S'Generated'
p160
sS'bidentate_685326'
p161
S'Generated'
p162
sS'bidentate_685325'
p163
S'Generated'
p164
sS'two-bridge_1094267'
p165
S'Generated'
p166
sS'bidentate_48894'
p167
S'Generated'
p168
sS'bidentate_46715'
p169
S'Generated'
p170
sS'bidentate_13342'
p171
S'Generated'
p172
sS'bidentate_275578'
p173
S'Generated'
p174
sS'bidentate_1309466'
p175
S'Generated'
p176
sS'four-bridge_333519'
p177
S'Generated'
p178
sS'two-bridge_282401'
p179
S'Generated'
p180
sS'two-bridge_576311'
p181
S'Generated'
p182
sS'four-bridge_762323'
p183
S'Generated'
p184
sS'three-bridge_90108'
p185
S'Generated'
p186
sS'three-bridge_545637'
p187
S'Generated'
p188
sS'bidentate_183464'
p189
S'Generated'
p190
sS'bidentate_78243'
p191
S'Generated'
p192
sS'two-bridge_1297550'
p193
S'Generated'
p194
sS'two-bridge_412674'
p195
S'Generated'
p196
sS'four-bridge_1309941'
p197
S'Generated'
p198
sS'bidentate_9543'
p199
S'Generated'
p200
sS'bidentate_50411'
p201
S'Generated'
p202
sS'two-bridge_1064410'
p203
S'Generated'
p204
sS'bidentate_684853'
p205
S'Generated'
p206
sS'four-bridge_52791'
p207
S'Generated'
p208
sS'four-bridge_610048'
p209
S'Generated'
p210
sS'two-bridge_216121'
p211
S'Generated'
p212
sS'bidentate_106052'
p213
S'Generated'
p214
sS'three-bridge_13437'
p215
S'Generated'
p216
sS'bidentate_904249'
p217
S'Generated'
p218
sS'three-bridge_931511'
p219
S'Generated'
p220
sS'three-bridge_1220497'
p221
S'Generated'
p222
sS'three-bridge_304416'
p223
S'Generated'
p224
sS'monodentate_282401'
p225
S'Generated'
p226
sS'four-bridge_487796'
p227
S'Generated'
p228
sS'four-bridge_487795'
p229
S'Generated'
p230
sS'four-bridge_27222'
p231
S'Generated'
p232
sS'bidentate_487659'
p233
S'Generated'
p234
sS'bidentate_487658'
p235
S'Generated'
p236
sS'monodentate_44796'
p237
S'Generated'
p238
sS'three-bridge_320993'
p239
S'Generated'
p240
sS'two-bridge_682724'
p241
S'Generated'
p242
sS'monodentate_685454'
p243
S'Generated'
p244
sS'three-bridge_834832'
p245
S'Generated'
p246
sS'monodentate_685452'
p247
S'Generated'
p248
sS'four-bridge_905677'
p249
S'Generated'
p250
sS'three-bridge_574585'
p251
S'Generated'
p252
sS'bidentate_333519'
p253
S'Generated'
p254
sS'monodentate_58344'
p255
S'Generated'
p256
sS'monodentate_48894'
p257
S'Generated'
p258
sS'monodentate_545637'
p259
S'Generated'
p260
sS'four-bridge_58549'
p261
S'Generated'
p262
sS'three-bridge_412729'
p263
S'Generated'
p264
sS'bidentate_1519033'
p265
S'Generated'
p266
sS'monodentate_361610'
p267
S'Generated'
p268
sS'four-bridge_23276'
p269
S'Generated'
p270
sS'two-bridge_367960'
p271
S'Generated'
p272
sS'monodentate_1422632'
p273
S'Generated'
p274
sS'four-bridge_97233'
p275
S'Generated'
p276
sS'three-bridge_181722'
p277
S'Generated'
p278
sS'bidentate_1142103'
p279
S'Generated'
p280
sS'two-bridge_251532'
p281
S'Generated'
p282
sS'monodentate_695147'
p283
S'Generated'
p284
sS'two-bridge_1622195'
p285
S'Generated'
p286
sS'four-bridge_1347251'
p287
S'Generated'
p288
sS'bidentate_90108'
p289
S'Generated'
p290
sS'bidentate_181770'
p291
S'Generated'
p292
sS'two-bridge_47299'
p293
S'Generated'
p294
sS'bidentate_574585'
p295
S'Generated'
p296
sS'four-bridge_349236'
p297
S'Generated'
p298
sS'two-bridge_78243'
p299
S'Generated'
p300
sS'two-bridge_26930'
p301
S'Generated'
p302
sS'bidentate_1379696'
p303
S'Generated'
p304
sS'bidentate_160605'
p305
S'Generated'
p306
sS'bidentate_1320580'
p307
S'Generated'
p308
sS'three-bridge_50533'
p309
S'Generated'
p310
sS'bidentate_27261'
p311
S'Generated'
p312
sS'monodentate_1310291'
p313
S'Generated'
p314
sS'two-bridge_1220497'
p315
S'Generated'
p316
sS'four-bridge_1446780'
p317
S'Generated'
p318
sS'monodentate_685326'
p319
S'Generated'
p320
sS'monodentate_685325'
p321
S'Generated'
p322
sS'four-bridge_506525'
p323
S'Generated'
p324
sS'three-bridge_593471'
p325
S'Generated'
p326
sS'two-bridge_487736'
p327
S'Generated'
p328
sS'bidentate_1120909'
p329
S'Generated'
p330
sS'monodentate_468418'
p331
S'Generated'
p332
sS'monodentate_544431'
p333
S'Generated'
p334
sS'monodentate_1148730'
p335
S'Generated'
p336
sS'monodentate_1519033'
p337
S'Generated'
p338
sS'four-bridge_412393'
p339
S'Generated'
p340
sS'bidentate_1316428'
p341
S'Generated'
p342
sS'two-bridge_142536'
p343
S'Generated'
p344
sS'monodentate_46493'
p345
S'Generated'
p346
sS'three-bridge_956042'
p347
S'Generated'
p348
sS'two-bridge_106546'
p349
S'Generated'
p350
sS'monodentate_178465'
p351
S'Generated'
p352
sS'three-bridge_610048'
p353
S'Generated'
p354
sS'four-bridge_1379696'
p355
S'Generated'
p356
sS'monodentate_1276482'
p357
S'Generated'
p358
sS'monodentate_9543'
p359
S'Generated'
p360
sS'bidentate_57766'
p361
S'Generated'
p362
sS'monodentate_956042'
p363
S'Generated'
p364
sS'four-bridge_651479'
p365
S'Generated'
p366
sS'two-bridge_971486'
p367
S'Generated'
p368
sS'monodentate_90816'
p369
S'Generated'
p370
sS'two-bridge_685413'
p371
S'Generated'
p372
sS'bidentate_acetate'
p373
S'Generated'
p374
sS'two-bridge_benzoate'
p375
S'Generated'
p376
sS'four-bridge_41460'
p377
S'Generated'
p378
sS'four-bridge_199591'
p379
S'Generated'
p380
sS'three-bridge_52791'
p381
S'Generated'
p382
sS'four-bridge_685374'
p383
S'Generated'
p384
sS'bidentate_13353'
p385
S'Generated'
p386
sS'bidentate_304416'
p387
S'Generated'
p388
sS'four-bridge_685372'
p389
S'Generated'
p390
sS'four-bridge_685373'
p391
S'Generated'
p392
sS'two-bridge_487658'
p393
S'Generated'
p394
sS'monodentate_730032'
p395
S'Generated'
p396
sS'four-bridge_90108'
p397
S'Generated'
p398
sS'three-bridge_97233'
p399
S'Generated'
p400
sS'two-bridge_503502'
p401
S'Generated'
p402
sS'three-bridge_1321032'
p403
S'Generated'
p404
sS'monodentate_1064410'
p405
S'Generated'
p406
sS'two-bridge_593471'
p407
S'Generated'
p408
sS'three-bridge_1078482'
p409
S'Generated'
p410
sS'monodentate_823035'
p411
S'Generated'
p412
sS'three-bridge_464583'
p413
S'Generated'
p414
sS'two-bridge_956042'
p415
S'Generated'
p416
sS'two-bridge_412646'
p417
S'Generated'
p418
sS'two-bridge_412643'
p419
S'Generated'
p420
sS'three-bridge_412638'
p421
S'Generated'
p422
sS'bidentate_972989'
p423
S'Generated'
p424
sS'four-bridge_194535'
p425
S'Generated'
p426
sS'three-bridge_144348'
p427
S'Generated'
p428
sS'bidentate_47299'
p429
S'Generated'
p430
sS'two-bridge_1379696'
p431
S'Generated'
p432
sS'bidentate_730032'
p433
S'Generated'
p434
sS'monodentate_461869'
p435
S'Generated'
p436
sS'three-bridge_367960'
p437
S'Generated'
p438
sS'four-bridge_1088304'
p439
S'Generated'
p440
sS'three-bridge_685413'
p441
S'Generated'
p442
sS'three-bridge_1594948'
p443
S'Generated'
p444
sS'bidentate_487660'
p445
S'Generated'
p446
sS'bidentate_953791'
p447
S'Generated'
p448
sS'two-bridge_905677'
p449
S'Generated'
p450
sS'bidentate_762323'
p451
S'Generated'
p452
sS'three-bridge_295850'
p453
S'Generated'
p454
sS'bidentate_113187'
p455
S'Generated'
p456
sS'four-bridge_275326'
p457
S'Generated'
p458
sS'three-bridge_412393'
p459
S'Generated'
p460
sS'three-bridge_1144985'
p461
S'Generated'
p462
sS'two-bridge_1060299'
p463
S'Generated'
p464
sS'bidentate_412729'
p465
S'Generated'
p466
sS'bidentate_64576'
p467
S'Generated'
p468
sS'two-bridge_383336'
p469
S'Generated'
p470
sS'monodentate_13451'
p471
S'Generated'
p472
sS'monodentate_13450'
p473
S'Generated'
p474
sS'three-bridge_195642'
p475
S'Generated'
p476
sS'monodentate_595271'
p477
S'Generated'
p478
sS'two-bridge_349236'
p479
S'Generated'
p480
sS'two-bridge_58344'
p481
S'Generated'
p482
sS'three-bridge_409164'
p483
S'Generated'
p484
sS'three-bridge_1296771'
p485
S'Generated'
p486
sS'four-bridge_685413'
p487
S'Generated'
p488
sS'two-bridge_13451'
p489
S'Generated'
p490
sS'two-bridge_1301295'
p491
S'Generated'
p492
sS'two-bridge_181770'
p493
S'Generated'
p494
sS'bidentate_1177604'
p495
S'Generated'
p496
sS'monodentate_367960'
p497
S'Generated'
p498
sS'bidentate_383336'
p499
S'Generated'
p500
sS'bidentate_506525'
p501
S'Generated'
p502
sS'three-bridge_383336'
p503
S'Generated'
p504
sS'three-bridge_26930'
p505
S'Generated'
p506
sS'three-bridge_1297550'
p507
S'Generated'
p508
sS'monodentate_995436'
p509
S'Generated'
p510
sS'four-bridge_22402'
p511
S'Generated'
p512
sS'monodentate_46159'
p513
S'Generated'
p514
sS'bidentate_5176'
p515
S'Generated'
p516
sS'four-bridge_acetate'
p517
S'Generated'
p518
sS'monodentate_346231'
p519
S'Generated'
p520
sS'three-bridge_468418'
p521
S'Generated'
p522
sS'three-bridge_1342409'
p523
S'Generated'
p524
sS'monodentate_1307160'
p525
S'Generated'
p526
sS'four-bridge_1422632'
p527
S'Generated'
p528
sS'three-bridge_392156'
p529
S'Generated'
p530
sS'three-bridge_50411'
p531
S'Generated'
p532
sS'two-bridge_9400'
p533
S'Generated'
p534
sS'bidentate_765417'
p535
S'Generated'
p536
sS'bidentate_489703'
p537
S'Generated'
p538
sS'bidentate_489702'
p539
S'Generated'
p540
sS'bidentate_489701'
p541
S'Generated'
p542
sS'two-bridge_33807'
p543
S'Generated'
p544
sS'four-bridge_895722'
p545
S'Generated'
p546
sS'two-bridge_487659'
p547
S'Generated'
p548
sS'four-bridge_302219'
p549
S'Generated'
p550
sS'bidentate_329628'
p551
S'Generated'
p552
sS'four-bridge_419574'
p553
S'Generated'
p554
sS'two-bridge_695147'
p555
S'Generated'
p556
sS'four-bridge_1535748'
p557
S'Generated'
p558
sS'bidentate_293569'
p559
S'Generated'
p560
sS'bidentate_1122075'
p561
S'Generated'
p562
sS'three-bridge_1294059'
p563
S'Generated'
p564
sS'four-bridge_190756'
p565
S'Generated'
p566
sS'two-bridge_myristate'
p567
S'Generated'
p568
sS'three-bridge_1446780'
p569
S'Generated'
p570
sS'two-bridge_489702'
p571
S'Generated'
p572
sS'two-bridge_489703'
p573
S'Generated'
p574
sS'two-bridge_489701'
p575
S'Generated'
p576
sS'monodentate_40433'
p577
S'Generated'
p578
sS'monodentate_57766'
p579
S'Generated'
p580
sS'bidentate_294428'
p581
S'Generated'
p582
sS'two-bridge_945567'
p583
S'Generated'
p584
sS'four-bridge_367240'
p585
S'Generated'
p586
sS'monodentate_142536'
p587
S'Generated'
p588
sS'bidentate_33807'
p589
S'Generated'
p590
sS'two-bridge_773359'
p591
S'Generated'
p592
sS'monodentate_565046'
p593
S'Generated'
p594
sS'bidentate_13437'
p595
S'Generated'
p596
sS'bidentate_896353'
p597
S'Generated'
p598
sS'four-bridge_412684'
p599
S'Generated'
p600
sS'monodentate_1383557'
p601
S'Generated'
p602
sS'bidentate_593471'
p603
S'Generated'
p604
sS'bidentate_1342409'
p605
S'Generated'
p606
sS'two-bridge_992232'
p607
S'Generated'
p608
sS'monodentate_487659'
p609
S'Generated'
p610
sS'monodentate_371690'
p611
S'Generated'
p612
sS'three-bridge_78243'
p613
S'Generated'
p614
sS'four-bridge_664680'
p615
S'Generated'
p616
sS'monodentate_702765'
p617
S'Generated'
p618
sS'four-bridge_290925'
p619
S'Generated'
p620
sS'three-bridge_13450'
p621
S'Generated'
p622
sS'monodentate_1296771'
p623
S'Generated'
p624
sS'bidentate_126240'
p625
S'Generated'
p626
sS'three-bridge_971287'
p627
S'Generated'
p628
sS'monodentate_89389'
p629
S'Generated'
p630
sS'two-bridge_302219'
p631
S'Generated'
p632
sS'three-bridge_576311'
p633
S'Generated'
p634
sS'three-bridge_44796'
p635
S'Generated'
p636
sS'monodentate_1297550'
p637
S'Generated'
p638
sS'bidentate_346231'
p639
S'Generated'
p640
sS'four-bridge_644082'
p641
S'Generated'
p642
sS'four-bridge_644084'
p643
S'Generated'
p644
sS'bidentate_773281'
p645
S'Generated'
p646
sS'monodentate_23276'
p647
S'Generated'
p648
sS'bidentate_1361187'
p649
S'Generated'
p650
sS'three-bridge_33807'
p651
S'Generated'
p652
sS'monodentate_1004647'
p653
S'Generated'
p654
sS'four-bridge_1302620'
p655
S'Generated'
p656
sS'four-bridge_222089'
p657
S'Generated'
p658
sS'monodentate_390209'
p659
S'Generated'
p660
sS'monodentate_407382'
p661
S'Generated'
p662
sS'bidentate_1144985'
p663
S'Generated'
p664
sS'monodentate_217615'
p665
S'Generated'
p666
sS'bidentate_407382'
p667
S'Generated'
p668
sS'two-bridge_44010'
p669
S'Generated'
p670
sS'two-bridge_651479'
p671
S'Generated'
p672
sS'monodentate_567294'
p673
S'Generated'
p674
sS'bidentate_370950'
p675
S'Generated'
p676
sS'four-bridge_126728'
p677
S'Generated'
p678
sS'three-bridge_412673'
p679
S'Generated'
p680
sS'three-bridge_412674'
p681
S'Generated'
p682
sS'three-bridge_412675'
p683
S'Generated'
p684
sS'monodentate_1060302'
p685
S'Generated'
p686
sS'four-bridge_1315661'
p687
S'Generated'
p688
sS'two-bridge_57766'
p689
S'Generated'
p690
sS'four-bridge_1143956'
p691
S'Generated'
p692
sS'two-bridge_16656'
p693
S'Generated'
p694
sS'three-bridge_285805'
p695
S'Generated'
p696
sS'bidentate_benzoate'
p697
g376
sS'bidentate_349236'
p698
S'Generated'
p699
sS'two-bridge_333519'
p700
S'Generated'
p701
sS'bidentate_1062475'
p702
S'Generated'
p703
sS'bidentate_216121'
p704
S'Generated'
p705
sS'bidentate_1062471'
p706
S'Generated'
p707
sS'three-bridge_416684'
p708
S'Generated'
p709
sS'three-bridge_58549'
p710
S'Generated'
p711
sS'monodentate_1379696'
p712
S'Generated'
p713
sS'bidentate_88265'
p714
S'Generated'
p715
sS'bidentate_499823'
p716
S'Generated'
p717
sS'monodentate_251981'
p718
S'Generated'
p719
sS'four-bridge_1622195'
p720
S'Generated'
p721
sS'four-bridge_392156'
p722
S'Generated'
p723
sS'four-bridge_896353'
p724
S'Generated'
p725
sS'two-bridge_487660'
p726
S'Generated'
p727
sS'bidentate_644083'
p728
S'Generated'
p729
sS'bidentate_644082'
p730
S'Generated'
p731
sS'bidentate_644084'
p732
S'Generated'
p733
sS'bidentate_253155'
p734
S'Generated'
p735
sS'bidentate_143898'
p736
S'Generated'
p737
sS'monodentate_412675'
p738
S'Generated'
p739
sS'monodentate_412674'
p740
S'Generated'
p741
sS'monodentate_412673'
p742
S'Generated'
p743
sS'monodentate_1320580'
p744
S'Generated'
p745
sS'four-bridge_1314194'
p746
S'Generated'
p747
sS'two-bridge_304416'
p748
S'Generated'
p749
sS'bidentate_1347251'
p750
S'Generated'
p751
sS'two-bridge_787058'
p752
S'Generated'
p753
sS'monodentate_487658'
p754
S'Generated'
p755
sS'two-bridge_1422632'
p756
S'Generated'
p757
sS'monodentate_931511'
p758
S'Generated'
p759
sS'two-bridge_412393'
p760
S'Generated'
p761
sS'four-bridge_106052'
p762
S'Generated'
p763
sS'bidentate_685374'
p764
S'Generated'
p765
sS'four-bridge_13437'
p766
S'Generated'
p767
sS'four-bridge_295850'
p768
S'Generated'
p769
sS'bidentate_685372'
p770
S'Generated'
p771
sS'bidentate_685373'
p772
S'Generated'
p773
sS'monodentate_601217'
p774
S'Generated'
p775
sS'bidentate_237868'
p776
S'Generated'
p777
sS'two-bridge_102901'
p778
S'Generated'
p779
sS'four-bridge_992232'
p780
S'Generated'
p781
sS'three-bridge_178465'
p782
S'Generated'
p783
sS'two-bridge_371690'
p784
S'Generated'
p785
sS'bidentate_1064410'
p786
S'Generated'
p787
sS'four-bridge_364873'
p788
S'Generated'
p789
sS'three-bridge_222089'
p790
S'Generated'
p791
sS'two-bridge_1088304'
p792
S'Generated'
p793
sS'four-bridge_151281'
p794
S'Generated'
p795
sS'monodentate_682724'
p796
S'Generated'
p797
sS'two-bridge_272532'
p798
S'Generated'
p799
sS'two-bridge_16932'
p800
S'Generated'
p801
sS'four-bridge_1220497'
p802
S'Generated'
p803
sS'three-bridge_164354'
p804
S'Generated'
p805
sS'bidentate_1276482'
p806
S'Generated'
p807
sS'two-bridge_23276'
p808
S'Generated'
p809
sS'three-bridge_1361187'
p810
S'Generated'
p811
sS'monodentate_88265'
p812
S'Generated'
p813
sS'three-bridge_730032'
p814
S'Generated'
p815
sS'two-bridge_1347251'
p816
S'Generated'
p817
sS'monodentate_291865'
p818
S'Generated'
p819
sS'two-bridge_1356323'
p820
S'Generated'
p821
sS'three-bridge_567294'
p822
S'Generated'
p823
sS'three-bridge_736963'
p824
S'Generated'
p825
sS'three-bridge_1060299'
p826
S'Generated'
p827
sS'three-bridge_13353'
p828
S'Generated'
p829
sS'four-bridge_27217'
p830
S'Generated'
p831
sS'bidentate_486263'
p832
S'Generated'
p833
sS'bidentate_58344'
p834
S'Generated'
p835
sS'two-bridge_828204'
p836
S'Generated'
p837
sS'monodentate_157223'
p838
S'Generated'
p839
sS'four-bridge_195642'
p840
S'Generated'
p841
sS'three-bridge_9400'
p842
S'Generated'
p843
sS'four-bridge_44765'
p844
S'Generated'
p845
sS'three-bridge_1379696'
p846
S'Generated'
p847
sS'bidentate_567198'
p848
S'Generated'
p849
sS'three-bridge_685326'
p850
S'Generated'
p851
sS'three-bridge_23276'
p852
S'Generated'
p853
sS'monodentate_53857'
p854
S'Generated'
p855
sS'monodentate_1384710'
p856
S'Generated'
p857
sS'three-bridge_1062471'
p858
S'Generated'
p859
sS'bidentate_199591'
p860
S'Generated'
p861
sS'three-bridge_1062475'
p862
S'Generated'
p863
sS'bidentate_624264'
p864
S'Generated'
p865
sS'three-bridge_13451'
p866
S'Generated'
p867
sS'two-bridge_1296771'
p868
S'Generated'
p869
sS'monodentate_251532'
p870
S'Generated'
p871
sS'monodentate_294428'
p872
S'Generated'
p873
sS'four-bridge_893321'
p874
S'Generated'
p875
sS'four-bridge_164354'
p876
S'Generated'
p877
sS'two-bridge_1384710'
p878
S'Generated'
p879
sS'three-bridge_46493'
p880
S'Generated'
p881
sS'two-bridge_1535748'
p882
S'Generated'
p883
sS'bidentate_617807'
p884
S'Generated'
p885
sS'three-bridge_576096'
p886
S'Generated'
p887
sS'monodentate_971287'
p888
S'Generated'
p889
sS'four-bridge_126240'
p890
S'Generated'
p891
sS'two-bridge_90816'
p892
S'Generated'
p893
sS'four-bridge_1301295'
p894
S'Generated'
p895
sS'four-bridge_1309466'
p896
S'Generated'
p897
sS'bidentate_364873'
p898
S'Generated'
p899
sS'bidentate_371690'
p900
S'Generated'
p901
sS'four-bridge_972989'
p902
S'Generated'
p903
sS'two-bridge_461869'
p904
S'Generated'
p905
sS'monodentate_383336'
p906
S'Generated'
p907
sS'bidentate_27217'
p908
S'Generated'
p909
sS'four-bridge_287700'
p910
S'Generated'
p911
sS'two-bridge_702765'
p912
S'Generated'
p913
sS'two-bridge_1214330'
p914
S'Generated'
p915
sS'three-bridge_972989'
p916
S'Generated'
p917
sS'two-bridge_222089'
p918
S'Generated'
p919
sS'monodentate_629648'
p920
S'Generated'
p921
sS'bidentate_667834'
p922
S'Generated'
p923
sS'monodentate_1378776'
p924
S'Generated'
p925
sS'two-bridge_1166010'
p926
S'Generated'
p927
sS'monodentate_945567'
p928
S'Generated'
p929
sS'bidentate_823035'
p930
S'Generated'
p931
sS'monodentate_1500471'
p932
S'Generated'
p933
sS'two-bridge_295850'
p934
S'Generated'
p935
sS'bidentate_53857'
p936
S'Generated'
p937
sS'four-bridge_216121'
p938
S'Generated'
p939
sS'monodentate_16932'
p940
S'Generated'
p941
sS'three-bridge_myristate'
p942
S'Generated'
p943
sS'four-bridge_787058'
p944
S'Generated'
p945
sS'two-bridge_164354'
p946
S'Generated'
p947
sS'four-bridge_198761'
p948
S'Generated'
p949
sS'monodentate_412684'
p950
S'Generated'
p951
sS'monodentate_412685'
p952
S'Generated'
p953
sS'two-bridge_195642'
p954
S'Generated'
p955
sS'two-bridge_205744'
p956
S'Generated'
p957
sS'three-bridge_211864'
p958
S'Generated'
p959
sS'monodentate_547485'
p960
S'Generated'
p961
sS'two-bridge_1590039'
p962
S'Generated'
p963
sS'four-bridge_412638'
p964
S'Generated'
p965
sS'monodentate_1356323'
p966
S'Generated'
p967
sS'monodentate_1214330'
p968
S'Generated'
p969
sS'monodentate_1351816'
p970
S'Generated'
p971
sS'four-bridge_412636'
p972
S'Generated'
p973
sS'bidentate_1143956'
p974
S'Generated'
p975
sS'four-bridge_412748'
p976
S'Generated'
p977
sS'bidentate_1446780'
p978
S'Generated'
p979
sS'four-bridge_644083'
p980
S'Generated'
p981
sS'four-bridge_1177604'
p982
S'Generated'
p983
sS'bidentate_25168'
p984
S'Generated'
p985
sS'monodentate_300973'
p986
S'Generated'
p987
sS'two-bridge_22402'
p988
S'Generated'
p989
sS'three-bridge_487658'
p990
S'Generated'
p991
sS'three-bridge_70830'
p992
S'Generated'
p993
sS'two-bridge_390209'
p994
S'Generated'
p995
sS'bidentate_90816'
p996
S'Generated'
p997
sS'bidentate_1220497'
p998
S'Generated'
p999
sS'monodentate_1342409'
p1000
S'Generated'
p1001
sS'two-bridge_412638'
p1002
S'Generated'
p1003
sS'two-bridge_412636'
p1004
S'Generated'
p1005
sS'four-bridge_593471'
p1006
S'Generated'
p1007
sS'three-bridge_90816'
p1008
S'Generated'
p1009
sS'monodentate_1362497'
p1010
S'Generated'
p1011
sS'monodentate_320993'
p1012
S'Generated'
p1013
sS'monodentate_50533'
p1014
S'Generated'
p1015
sS'monodentate_503502'
p1016
S'Generated'
p1017
sS'bidentate_416684'
p1018
S'Generated'
p1019
sS'four-bridge_1590039'
p1020
S'Generated'
p1021
sS'four-bridge_264834'
p1022
S'Generated'
p1023
sS'monodentate_454017'
p1024
S'Generated'
p1025
sS'four-bridge_278814'
p1026
S'Generated'
p1027
sS'three-bridge_487736'
p1028
S'Generated'
p1029
sS'four-bridge_272532'
p1030
S'Generated'
p1031
sS'three-bridge_9413'
p1032
S'Generated'
p1033
sS'four-bridge_487660'
p1034
S'Generated'
p1035
sS'three-bridge_acetate'
p1036
S'Generated'
p1037
sS'three-bridge_454017'
p1038
S'Generated'
p1039
sS'four-bridge_44796'
p1040
S'Generated'
p1041
sS'monodentate_684853'
p1042
S'Generated'
p1043
sS'bidentate_290925'
p1044
S'Generated'
p1045
sS'three-bridge_1319399'
p1046
S'Generated'
p1047
sS'bidentate_567294'
p1048
S'Generated'
p1049
sS'four-bridge_226296'
p1050
S'Generated'
p1051
sS'two-bridge_1378776'
p1052
S'Generated'
p1053
sS'monodentate_1294059'
p1054
S'Generated'
p1055
sS'two-bridge_1078482'
p1056
S'Generated'
p1057
sS'four-bridge_210209'
p1058
S'Generated'
p1059
sS'four-bridge_58344'
p1060
S'Generated'
p1061
sS'monodentate_904249'
p1062
S'Generated'
p1063
sS'four-bridge_48894'
p1064
S'Generated'
p1065
sS'two-bridge_1519033'
p1066
S'Generated'
p1067
sS'two-bridge_293569'
p1068
S'Generated'
p1069
sS'bidentate_367960'
p1070
S'Generated'
p1071
sS'three-bridge_302219'
p1072
S'Generated'
p1073
sS'bidentate_995436'
p1074
S'Generated'
p1075
sS'bidentate_41460'
p1076
S'Generated'
p1077
sS'monodentate_576096'
p1078
S'Generated'
p1079
sS'monodentate_432484'
p1080
S'Generated'
p1081
sS'bidentate_27222'
p1082
S'Generated'
p1083
sS'four-bridge_211864'
p1084
S'Generated'
p1085
sS'two-bridge_454017'
p1086
S'Generated'
p1087
sS'bidentate_26930'
p1088
S'Generated'
p1089
sS'four-bridge_144348'
p1090
S'Generated'
p1091
sS'two-bridge_416684'
p1092
S'Generated'
p1093
sS'two-bridge_695310'
p1094
S'Generated'
p1095
sS'monodentate_416684'
p1096
S'Generated'
p1097
sS'two-bridge_364873'
p1098
S'Generated'
p1099
sS'monodentate_1615266'
p1100
S'Generated'
p1101
sS'bidentate_432484'
p1102
S'Generated'
p1103
sS'monodentate_577219'
p1104
S'Generated'
p1105
sS'bidentate_768348'
p1106
S'Generated'
p1107
sS'monodentate_1316428'
p1108
S'Generated'
p1109
sS'three-bridge_193314'
p1110
S'Generated'
p1111
sS'two-bridge_89389'
p1112
S'Generated'
p1113
sS'monodentate_486263'
p1114
S'Generated'
p1115
sS'bidentate_144348'
p1116
S'Generated'
p1117
sS'monodentate_651514'
p1118
S'Generated'
p1119
sS'two-bridge_210209'
p1120
S'Generated'
p1121
sS'three-bridge_282401'
p1122
S'Generated'
p1123
sS'three-bridge_651514'
p1124
S'Generated'
p1125
sS'three-bridge_893321'
p1126
S'Generated'
p1127
sS'four-bridge_142536'
p1128
S'Generated'
p1129
sS'bidentate_1334253'
p1130
S'Generated'
p1131
sS'three-bridge_130192'
p1132
S'Generated'
p1133
sS'two-bridge_198761'
p1134
S'Generated'
p1135
sS'monodentate_1143956'
p1136
S'Generated'
p1137
sS'two-bridge_685454'
p1138
S'Generated'
p1139
sS'two-bridge_685326'
p1140
S'Generated'
p1141
sS'two-bridge_685452'
p1142
S'Generated'
p1143
sS'monodentate_293569'
p1144
S'Generated'
p1145
sS'monodentate_25168'
p1146
S'Generated'
p1147
sS'bidentate_275326'
p1148
S'Generated'
p1149
sS'three-bridge_489702'
p1150
S'Generated'
p1151
sS'three-bridge_489703'
p1152
S'Generated'
p1153
sS'three-bridge_489701'
p1154
S'Generated'
p1155
sS'four-bridge_412646'
p1156
S'Generated'
p1157
sS'two-bridge_685325'
p1158
S'Generated'
p1159
sS'four-bridge_412643'
p1160
S'Generated'
p1161
sS'monodentate_411502'
p1162
S'Generated'
p1163
sS'two-bridge_412673'
p1164
S'Generated'
p1165
sS'four-bridge_90816'
p1166
S'Generated'
p1167
sS'two-bridge_971287'
p1168
S'Generated'
p1169
sS'four-bridge_1166010'
p1170
S'Generated'
p1171
sS'three-bridge_151281'
p1172
S'Generated'
p1173
sS'two-bridge_412675'
p1174
S'Generated'
p1175
sS'two-bridge_53857'
p1176
S'Generated'
p1177
sS'bidentate_893321'
p1178
S'Generated'
p1179
sS'monodentate_487736'
p1180
S'Generated'
p1181
sS'monodentate_828204'
p1182
S'Generated'
p1183
sS'monodentate_471815'
p1184
S'Generated'
p1185
sS'four-bridge_489703'
p1186
S'Generated'
p1187
sS'four-bridge_489702'
p1188
S'Generated'
p1189
sS'four-bridge_489701'
p1190
S'Generated'
p1191
sS'two-bridge_1309941'
p1192
S'Generated'
p1193
sS'monodentate_205744'
p1194
S'Generated'
p1195
sS'four-bridge_9400'
p1196
S'Generated'
p1197
sS'three-bridge_73898'
p1198
S'Generated'
p1199
sS'three-bridge_349236'
p1200
S'Generated'
p1201
sS'two-bridge_834832'
p1202
S'Generated'
p1203
sS'monodentate_295850'
p1204
S'Generated'
p1205
sS'four-bridge_1094267'
p1206
S'Generated'
p1207
sS'bidentate_764859'
p1208
S'Generated'
p1209
sS'monodentate_409164'
p1210
S'Generated'
p1211
sS'three-bridge_601217'
p1212
S'Generated'
p1213
sS'two-bridge_1615266'
p1214
S'Generated'
p1215
sS'bidentate_285805'
p1216
S'Generated'
p1217
sS'monodentate_851795'
p1218
S'Generated'
p1219
sS'bidentate_133379'
p1220
S'Generated'
p1221
sS'monodentate_50411'
p1222
S'Generated'
p1223
sS'bidentate_601217'
p1224
S'Generated'
p1225
sS'two-bridge_212565'
p1226
S'Generated'
p1227
sS'bidentate_210209'
p1228
S'Generated'
p1229
sS'two-bridge_409164'
p1230
S'Generated'
p1231
sS'two-bridge_9413'
p1232
S'Generated'
p1233
sS'two-bridge_126240'
p1234
S'Generated'
p1235
sS'three-bridge_1356323'
p1236
S'Generated'
p1237
sS'monodentate_1142103'
p1238
S'Generated'
p1239
sS'four-bridge_390209'
p1240
S'Generated'
p1241
sS'monodentate_104182'
p1242
S'Generated'
p1243
sS'bidentate_905677'
p1244
S'Generated'
p1245
sS'three-bridge_407382'
p1246
S'Generated'
p1247
sS'monodentate_624264'
p1248
S'Generated'
p1249
sS'monodentate_1062471'
p1250
S'Generated'
p1251
sS'monodentate_1062475'
p1252
S'Generated'
p1253
sS'three-bridge_828204'
p1254
S'Generated'
p1255
sS'four-bridge_282401'
p1256
S'Generated'
p1257
sS'three-bridge_333519'
p1258
S'Generated'
p1259
sS'monodentate_768348'
p1260
S'Generated'
p1261
sS'bidentate_1094267'
p1262
S'Generated'
p1263
sS'monodentate_576311'
p1264
S'Generated'
p1265
sS'three-bridge_768348'
p1266
S'Generated'
p1267
sS'two-bridge_58549'
p1268
S'Generated'
p1269
sS'three-bridge_503502'
p1270
S'Generated'
p1271
sS'two-bridge_1361187'
p1272
S'Generated'
p1273
sS'two-bridge_194535'
p1274
S'Generated'
p1275
sS'four-bridge_685454'
p1276
S'Generated'
p1277
sS'two-bridge_13366'
p1278
S'Generated'
p1279
sS'monodentate_765417'
p1280
S'Generated'
p1281
sS'three-bridge_181770'
p1282
S'Generated'
p1283
sS'four-bridge_685452'
p1284
S'Generated'
p1285
sS'monodentate_1144985'
p1286
S'Generated'
p1287
sS'bidentate_412685'
p1288
S'Generated'
p1289
sS'three-bridge_194535'
p1290
S'Generated'
p1291
sS'monodentate_284796'
p1292
S'Generated'
p1293
sS'four-bridge_13451'
p1294
S'Generated'
p1295
sS'four-bridge_13450'
p1296
S'Generated'
p1297
sS'monodentate_375583'
p1298
S'Generated'
p1299
sS'bidentate_544431'
p1300
S'Generated'
p1301
sS'four-bridge_545637'
p1302
S'Generated'
p1303
sS'two-bridge_294428'
p1304
S'Generated'
p1305
sS'two-bridge_346231'
p1306
S'Generated'
p1307
sS'two-bridge_199591'
p1308
S'Generated'
p1309
sS'bidentate_1378776'
p1310
S'Generated'
p1311
sS'three-bridge_300973'
p1312
S'Generated'
p1313
sS'four-bridge_1078482'
p1314
S'Generated'
p1315
sS'two-bridge_407382'
p1316
S'Generated'
p1317
sS'two-bridge_972989'
p1318
S'Generated'
p1319
sS'monodentate_253784'
p1320
S'Generated'
p1321
sS'three-bridge_1143956'
p1322
S'Generated'
p1323
sS'monodentate_160605'
p1324
S'Generated'
p1325
sS'bidentate_16932'
p1326
S'Generated'
p1327
sS'four-bridge_695147'
p1328
S'Generated'
p1329
sS'monodentate_212565'
p1330
S'Generated'
p1331
sS'monodentate_1309941'
p1332
S'Generated'
p1333
sS'two-bridge_1316428'
p1334
S'Generated'
p1335
sS'monodentate_764859'
p1336
S'Generated'
p1337
sS'three-bridge_41460'
p1338
S'Generated'
p1339
sS'four-bridge_487790'
p1340
S'Generated'
p1341
sS'four-bridge_487658'
p1342
S'Generated'
p1343
sS'monodentate_179756'
p1344
S'Generated'
p1345
sS'three-bridge_1309466'
p1346
S'Generated'
p1347
sS'four-bridge_685326'
p1348
S'Generated'
p1349
sS'four-bridge_685325'
p1350
S'Generated'
p1351
sS'bidentate_742021'
p1352
S'Generated'
p1353
sS'four-bridge_26930'
p1354
S'Generated'
p1355
sS'four-bridge_1323075'
p1356
S'Generated'
p1357
sS'bidentate_386850'
p1358
S'Generated'
p1359
sS'bidentate_338302'
p1360
S'Generated'
p1361
sS'four-bridge_468418'
p1362
S'Generated'
p1363
sS'four-bridge_544431'
p1364
S'Generated'
p1365
sS'two-bridge_412729'
p1366
S'Generated'
p1367
sS'bidentate_828204'
p1368
S'Generated'
p1369
sS'four-bridge_1610139'
p1370
S'Generated'
p1371
sS'two-bridge_565046'
p1372
S'Generated'
p1373
sS'three-bridge_253155'
p1374
S'Generated'
p1375
sS'four-bridge_178465'
p1376
S'Generated'
p1377
sS'monodentate_304416'
p1378
S'Generated'
p1379
sS'four-bridge_956042'
p1380
S'Generated'
p1381
sS'four-bridge_40433'
p1382
S'Generated'
p1383
sS'four-bridge_57766'
p1384
S'Generated'
p1385
sS'bidentate_1594948'
p1386
S'Generated'
p1387
sS'two-bridge_287700'
p1388
S'Generated'
p1389
sS'monodentate_181722'
p1390
S'Generated'
p1391
sS'monodentate_9400'
p1392
S'Generated'
p1393
sS'four-bridge_9413'
p1394
S'Generated'
p1395
sS'two-bridge_1446780'
p1396
S'Generated'
p1397
sS'monodentate_565134'
p1398
S'Generated'
p1399
sS'two-bridge_253155'
p1400
S'Generated'
p1401
sS'bidentate_106546'
p1402
S'Generated'
p1403
sS'bidentate_44796'
p1404
S'Generated'
p1405
sS'bidentate_102647'
p1406
S'Generated'
p1407
sS'two-bridge_1610139'
p1408
S'Generated'
p1409
sS'bidentate_736963'
p1410
S'Generated'
p1411
sS'monodentate_acetate'
p1412
S'Generated'
p1413
sS'monodentate_773359'
p1414
S'Generated'
p1415
sS'three-bridge_44765'
p1416
S'Generated'
p1417
sS'monodentate_311525'
p1418
S'Generated'
p1419
sS'four-bridge_730032'
p1420
S'Generated'
p1421
sS'monodentate_1347251'
p1422
S'Generated'
p1423
sS'bidentate_193314'
p1424
S'Generated'
p1425
sS'four-bridge_1321032'
p1426
S'Generated'
p1427
sS'two-bridge_730032'
p1428
S'Generated'
p1429
sS'three-bridge_199591'
p1430
S'Generated'
p1431
sS'three-bridge_487660'
p1432
S'Generated'
p1433
sS'bidentate_1060299'
p1434
S'Generated'
p1435
sS'three-bridge_1590039'
p1436
S'Generated'
p1437
sS'bidentate_1500471'
p1438
S'Generated'
p1439
sS'two-bridge_41460'
p1440
S'Generated'
p1441
sS'three-bridge_1064410'
p1442
S'Generated'
p1443
sS'monodentate_88589'
p1444
S'Generated'
p1445
sS'monodentate_356430'
p1446
S'Generated'
p1447
sS'bidentate_754946'
p1448
S'Generated'
p1449
sS'monodentate_27261'
p1450
S'Generated'
p1451
sS'three-bridge_102647'
p1452
S'Generated'
p1453
sS'monodentate_574585'
p1454
S'Generated'
p1455
sS'four-bridge_1361170'
p1456
S'Generated'
p1457
sS'three-bridge_685373'
p1458
S'Generated'
p1459
sS'three-bridge_685372'
p1460
S'Generated'
p1461
sS'three-bridge_685374'
p1462
S'Generated'
p1463
sS'four-bridge_89389'
p1464
S'Generated'
p1465
sS'monodentate_736963'
p1466
S'Generated'
p1467
sS'three-bridge_971486'
p1468
S'Generated'
p1469
sS'bidentate_205744'
p1470
S'Generated'
p1471
sS'monodentate_651479'
p1472
S'Generated'
p1473
sS'four-bridge_461869'
p1474
S'Generated'
p1475
sS'three-bridge_432484'
p1476
S'Generated'
p1477
sS'two-bridge_126728'
p1478
S'Generated'
p1479
sS'bidentate_44765'
p1480
S'Generated'
p1481
sS'bidentate_1356323'
p1482
S'Generated'
p1483
sS'three-bridge_754946'
p1484
S'Generated'
p1485
sS'three-bridge_412636'
p1486
S'Generated'
p1487
sS'three-bridge_53857'
p1488
S'Generated'
p1489
sS'four-bridge_388035'
p1490
S'Generated'
p1491
sS'two-bridge_12174'
p1492
S'Generated'
p1493
sS'bidentate_545637'
p1494
S'Generated'
p1495
sS'bidentate_664680'
p1496
S'Generated'
p1497
sS'three-bridge_1315661'
p1498
S'Generated'
p1499
sS'three-bridge_1310291'
p1500
S'Generated'
p1501
sS'monodentate_193314'
p1502
S'Generated'
p1503
sS'monodentate_667834'
p1504
S'Generated'
p1505
sS'four-bridge_432484'
p1506
S'Generated'
p1507
sS'three-bridge_73081'
p1508
S'Generated'
p1509
sS'three-bridge_388035'
p1510
S'Generated'
p1511
sS'four-bridge_1173483'
p1512
S'Generated'
p1513
sS'three-bridge_58344'
p1514
S'Generated'
p1515
sS'four-bridge_595271'
p1516
S'Generated'
p1517
sS'bidentate_565134'
p1518
S'Generated'
p1519
sS'four-bridge_367960'
p1520
S'Generated'
p1521
sS'bidentate_971486'
p1522
S'Generated'
p1523
sS'three-bridge_237868'
p1524
S'Generated'
p1525
sS'four-bridge_1319399'
p1526
S'Generated'
p1527
sS'bidentate_278814'
p1528
S'Generated'
p1529
sS'four-bridge_995436'
p1530
S'Generated'
p1531
sS'bidentate_195642'
p1532
S'Generated'
p1533
sS'monodentate_412729'
p1534
S'Generated'
p1535
sS'four-bridge_346231'
p1536
S'Generated'
p1537
sS'monodentate_102901'
p1538
S'Generated'
p1539
sS'three-bridge_682724'
p1540
S'Generated'
p1541
sS'monodentate_1088304'
p1542
S'Generated'
p1543
sS'two-bridge_684853'
p1544
S'Generated'
p1545
sS'bidentate_1296261'
p1546
S'Generated'
p1547
sS'three-bridge_1622195'
p1548
S'Generated'
p1549
sS'bidentate_23276'
p1550
S'Generated'
p1551
sS'three-bridge_287700'
p1552
S'Generated'
p1553
sS'two-bridge_1319399'
p1554
S'Generated'
p1555
sS'three-bridge_212565'
p1556
S'Generated'
p1557
sS'two-bridge_1361170'
p1558
S'Generated'
p1559
sS'monodentate_13342'
p1560
S'Generated'
p1561
sS'three-bridge_554032'
p1562
S'Generated'
p1563
sS'three-bridge_624264'
p1564
S'Generated'
p1565
sS'two-bridge_468418'
p1566
S'Generated'
p1567
sS'bidentate_610048'
p1568
S'Generated'
p1569
sS'two-bridge_50533'
p1570
S'Generated'
p1571
sS'two-bridge_664680'
p1572
S'Generated'
p1573
sS'monodentate_9413'
p1574
S'Generated'
p1575
sS'bidentate_1314194'
p1576
S'Generated'
p1577
sS'monodentate_70830'
p1578
S'Generated'
p1579
sS'two-bridge_762323'
p1580
S'Generated'
p1581
sS'three-bridge_390209'
p1582
S'Generated'
p1583
sS'two-bridge_1323075'
p1584
S'Generated'
p1585
sS'two-bridge_576096'
p1586
S'Generated'
p1587
sS'bidentate_576311'
p1588
S'Generated'
p1589
sS'two-bridge_275578'
p1590
S'Generated'
p1591
sS'bidentate_892587'
p1592
S'Generated'
p1593
sS'three-bridge_1320580'
p1594
S'Generated'
p1595
sS'monodentate_1594948'
p1596
S'Generated'
p1597
sS'bidentate_284796'
p1598
S'Generated'
p1599
sS'two-bridge_193314'
p1600
S'Generated'
p1601
sS'two-bridge_44796'
p1602
S'Generated'
p1603
sS'bidentate_126728'
p1604
S'Generated'
p1605
sS'two-bridge_1060302'
p1606
S'Generated'
p1607
sS'four-bridge_565046'
p1608
S'Generated'
p1609
sS'three-bridge_1309941'
p1610
S'Generated'
p1611
sS'bidentate_851795'
p1612
S'Generated'
p1613
sS'bidentate_58549'
p1614
S'Generated'
p1615
sS'bidentate_40017'
p1616
S'Generated'
p1617
sS'monodentate_742021'
p1618
S'Generated'
p1619
sS'three-bridge_126728'
p1620
S'Generated'
p1621
sS'monodentate_971486'
p1622
S'Generated'
p1623
sS'two-bridge_1294059'
p1624
S'Generated'
p1625
sS'three-bridge_293569'
p1626
S'Generated'
p1627
sS'monodentate_464583'
p1628
S'Generated'
p1629
sS'four-bridge_702765'
p1630
S'Generated'
p1631
sS'bidentate_487790'
p1632
S'Generated'
p1633
sS'bidentate_487796'
p1634
S'Generated'
p1635
sS'bidentate_487795'
p1636
S'Generated'
p1637
sS'bidentate_291865'
p1638
S'Generated'
p1639
sS'two-bridge_367240'
p1640
S'Generated'
p1641
sS'two-bridge_1173483'
p1642
S'Generated'
p1643
sS'bidentate_1309941'
p1644
S'Generated'
p1645
sS'three-bridge_1060302'
p1646
S'Generated'
p1647
sS'three-bridge_1362497'
p1648
S'Generated'
p1649
sS'bidentate_1610137'
p1650
S'Generated'
p1651
sS'bidentate_1610139'
p1652
S'Generated'
p1653
sS'three-bridge_419574'
p1654
S'Generated'
p1655
sS'four-bridge_53857'
p1656
S'Generated'
p1657
sS'two-bridge_610048'
p1658
S'Generated'
p1659
sS'two-bridge_411502'
p1660
S'Generated'
p1661
sS'monodentate_13437'
p1662
S'Generated'
p1663
sS'monodentate_1535748'
p1664
S'Generated'
p1665
sS'three-bridge_577219'
p1666
S'Generated'
p1667
sS'two-bridge_13342'
p1668
S'Generated'
p1669
sS'two-bridge_104182'
p1670
S'Generated'
p1671
sS'monodentate_386850'
p1672
S'Generated'
p1673
sS'bidentate_130192'
p1674
S'Generated'
p1675
sS'two-bridge_290925'
p1676
S'Generated'
p1677
sS'monodentate_113187'
p1678
S'Generated'
p1679
sS'bidentate_1297550'
p1680
S'Generated'
p1681
sS'four-bridge_1361187'
p1682
S'Generated'
p1683
sS'three-bridge_27222'
p1684
S'Generated'
p1685
sS'bidentate_1120256'
p1686
S'Generated'
p1687
sS'four-bridge_407382'
p1688
S'Generated'
p1689
sS'bidentate_212565'
p1690
S'Generated'
p1691
sS'four-bridge_217615'
p1692
S'Generated'
p1693
sS'monodentate_1175911'
p1694
S'Generated'
p1695
sS'two-bridge_574585'
p1696
S'Generated'
p1697
sS'four-bridge_1488432'
p1698
S'Generated'
p1699
sS'three-bridge_702765'
p1700
S'Generated'
p1701
sS'two-bridge_895722'
p1702
S'Generated'
p1703
sS'two-bridge_1144985'
p1704
S'Generated'
p1705
sS'bidentate_1307160'
p1706
S'Generated'
p1707
sS'four-bridge_1578406'
p1708
S'Generated'
p1709
sS'two-bridge_1321032'
p1710
S'Generated'
p1711
sS'three-bridge_1351816'
p1712
S'Generated'
p1713
sS'four-bridge_695310'
p1714
S'Generated'
p1715
sS'bidentate_547485'
p1716
S'Generated'
p1717
sS'bidentate_454017'
p1718
S'Generated'
p1719
sS'monodentate_33807'
p1720
S'Generated'
p1721
sS'four-bridge_834832'
p1722
S'Generated'
p1723
sS'bidentate_577219'
p1724
S'Generated'
p1725
sS'bidentate_46159'
p1726
S'Generated'
p1727
sS'monodentate_106546'
p1728
S'Generated'
p1729
sS'monodentate_46715'
p1730
S'Generated'
p1731
sS'three-bridge_1323075'
p1732
S'Generated'
p1733
sS'bidentate_419574'
p1734
S'Generated'
p1735
sS'three-bridge_210209'
p1736
S'Generated'
p1737
sS'bidentate_22402'
p1738
S'Generated'
p1739
sS'four-bridge_212565'
p1740
S'Generated'
p1741
sS'monodentate_617807'
p1742
S'Generated'
p1743
sS'bidentate_253784'
p1744
S'Generated'
p1745
sS'bidentate_1310291'
p1746
S'Generated'
p1747
sS'four-bridge_16932'
p1748
S'Generated'
p1749
sS'three-bridge_216121'
p1750
S'Generated'
p1751
sS'monodentate_40017'
p1752
S'Generated'
p1753
sS'three-bridge_226296'
p1754
S'Generated'
p1755
sS'bidentate_198761'
p1756
S'Generated'
p1757
sS'two-bridge_1142103'
p1758
S'Generated'
p1759
sS'monodentate_237868'
p1760
S'Generated'
p1761
sS'two-bridge_217615'
p1762
S'Generated'
p1763
sS'two-bridge_300973'
p1764
S'Generated'
p1765
sS'monodentate_26930'
p1766
S'Generated'
p1767
sS'two-bridge_113187'
p1768
S'Generated'
p1769
sS'bidentate_13451'
p1770
S'Generated'
p1771
sS'monodentate_13353'
p1772
S'Generated'
p1773
sS'bidentate_88589'
p1774
S'Generated'
p1775
sS'bidentate_282401'
p1776
S'Generated'
p1777
sS'bidentate_931511'
p1778
S'Generated'
p1779
sS'four-bridge_567294'
p1780
S'Generated'
p1781
sS'monodentate_1302620'
p1782
S'Generated'
p1783
sS'two-bridge_70830'
p1784
S'Generated'
p1785
sS'four-bridge_412675'
p1786
S'Generated'
p1787
sS'four-bridge_412674'
p1788
S'Generated'
p1789
sS'four-bridge_412673'
p1790
S'Generated'
p1791
sS'bidentate_151281'
p1792
S'Generated'
p1793
sS'bidentate_1488432'
p1794
S'Generated'
p1795
sS'monodentate_12174'
p1796
S'Generated'
p1797
sS'three-bridge_773359'
p1798
S'Generated'
p1799
sS'monodentate_285805'
p1800
S'Generated'
p1801
sS'bidentate_388035'
p1802
S'Generated'
p1803
sS'four-bridge_931511'
p1804
S'Generated'
p1805
sS'three-bridge_22402'
p1806
S'Generated'
p1807
sS'monodentate_754946'
p1808
S'Generated'
p1809
sS'three-bridge_895722'
p1810
S'Generated'
p1811
sS'monodentate_73898'
p1812
S'Generated'
p1813
sS'four-bridge_601217'
p1814
S'Generated'
p1815
sS'three-bridge_765417'
p1816
S'Generated'
p1817
sS'three-bridge_1361170'
p1818
S'Generated'
p1819
sS'monodentate_1315661'
p1820
S'Generated'
p1821
sS'two-bridge_44765'
p1822
S'Generated'
p1823
sS'four-bridge_1060299'
p1824
S'Generated'
p1825
sS'monodentate_183464'
p1826
S'Generated'
p1827
sS'four-bridge_1334253'
p1828
S'Generated'
p1829
sS'two-bridge_275326'
p1830
S'Generated'
p1831
sS'three-bridge_1302620'
p1832
S'Generated'
p1833
sS'monodentate_1296261'
p1834
S'Generated'
p1835
sS'bidentate_194535'
p1836
S'Generated'
p1837
sS'monodentate_253155'
p1838
S'Generated'
p1839
sS'three-bridge_13342'
p1840
S'Generated'
p1841
sS'four-bridge_181770'
p1842
S'Generated'
p1843
sS'three-bridge_364873'
p1844
S'Generated'
p1845
sS'bidentate_44010'
p1846
S'Generated'
p1847
sS'four-bridge_1122075'
p1848
S'Generated'
p1849
sS'monodentate_953791'
p1850
S'Generated'
p1851
sS'bidentate_63959'
p1852
S'Generated'
p1853
sS'bidentate_320993'
p1854
S'Generated'
p1855
sS'bidentate_1302620'
p1856
S'Generated'
p1857
sS'bidentate_217615'
p1858
S'Generated'
p1859
sS'bidentate_1004647'
p1860
S'Generated'
p1861
sS'monodentate_1622195'
p1862
S'Generated'
p1863
sS'monodentate_554032'
p1864
S'Generated'
p1865
sS'bidentate_1082323'
p1866
S'Generated'
p1867
sS'three-bridge_823035'
p1868
S'Generated'
p1869
sS'four-bridge_benzoate'
p1870
g376
sS'bidentate_956042'
p1871
S'Generated'
p1872
sS'three-bridge_945567'
p1873
S'Generated'
p1874
sS'bidentate_1362497'
p1875
S'Generated'
p1876
sS'monodentate_16656'
p1877
S'Generated'
p1878
sS'two-bridge_13353'
p1879
S'Generated'
p1880
sS'bidentate_412673'
p1881
S'Generated'
p1882
sS'four-bridge_1060302'
p1883
S'Generated'
p1884
sS'monodentate_1314194'
p1885
S'Generated'
p1886
sS'two-bridge_754946'
p1887
S'Generated'
p1888
sS'bidentate_412675'
p1889
S'Generated'
p1890
sS'bidentate_412674'
p1891
S'Generated'
p1892
sS'three-bridge_275326'
p1893
S'Generated'
p1894
sS'two-bridge_386850'
p1895
S'Generated'
p1896
sS'monodentate_181770'
p1897
S'Generated'
p1898
sS'bidentate_myristate'
p1899
S'Generated'
p1900
sS'bidentate_104182'
p1901
S'Generated'
p1902
sS'two-bridge_338302'
p1903
S'Generated'
p1904
sS'monodentate_130192'
p1905
S'Generated'
p1906
sS'bidentate_16656'
p1907
S'Generated'
p1908
sS'two-bridge_486263'
p1909
S'Generated'
p1910
sS'four-bridge_411502'
p1911
S'Generated'
p1912
sS'four-bridge_251532'
p1913
S'Generated'
p1914
sS'monodentate_275578'
p1915
S'Generated'
p1916
sS'two-bridge_1122075'
p1917
S'Generated'
p1918
sS'bidentate_685413'
p1919
S'Generated'
p1920
sS'four-bridge_294428'
p1921
S'Generated'
p1922
sS'three-bridge_1378776'
p1923
S'Generated'
p1924
sS'two-bridge_685374'
p1925
S'Generated'
p1926
sS'three-bridge_1316428'
p1927
S'Generated'
p1928
sS'bidentate_554032'
p1929
S'Generated'
p1930
sS'four-bridge_971287'
p1931
S'Generated'
p1932
sS'bidentate_1384710'
p1933
S'Generated'
p1934
sS'monodentate_151281'
p1935
S'Generated'
p1936
sS'three-bridge_1142103'
p1937
S'Generated'
p1938
sS'two-bridge_130192'
p1939
S'Generated'
p1940
sS'monodentate_1220497'
p1941
S'Generated'
p1942
sS'two-bridge_1383557'
p1943
S'Generated'
p1944
sS'two-bridge_1302620'
p1945
S'Generated'
p1946
sS'three-bridge_1384710'
p1947
S'Generated'
p1948
sS'four-bridge_487659'
p1949
S'Generated'
p1950
sS'four-bridge_383336'
p1951
S'Generated'
p1952
sS'three-bridge_565134'
p1953
S'Generated'
p1954
sS'three-bridge_992232'
p1955
S'Generated'
p1956
sS'bidentate_375583'
p1957
S'Generated'
p1958
sS'bidentate_702765'
p1959
S'Generated'
p1960
sS'bidentate_1319399'
p1961
S'Generated'
p1962
sS'two-bridge_211864'
p1963
S'Generated'
p1964
sS'three-bridge_565046'
p1965
S'Generated'
p1966
sS'bidentate_651514'
p1967
S'Generated'
p1968
sS'monodentate_370950'
p1969
S'Generated'
p1970
sS'four-bridge_945567'
p1971
S'Generated'
p1972
sS'monodentate_333519'
p1973
S'Generated'
p1974
sS'monodentate_143898'
p1975
S'Generated'
p1976
sS'monodentate_13366'
p1977
S'Generated'
p1978
sS'four-bridge_25168'
p1979
S'Generated'
p1980
sS'bidentate_264834'
p1981
S'Generated'
p1982
sS'monodentate_762323'
p1983
S'Generated'
p1984
sS'three-bridge_1088304'
p1985
S'Generated'
p1986
sS'bidentate_97233'
p1987
S'Generated'
p1988
sS'monodentate_47299'
p1989
S'Generated'
p1990
sS'two-bridge_375583'
p1991
S'Generated'
p1992
sS'two-bridge_106052'
p1993
S'Generated'
p1994
sS'four-bridge_412685'
p1995
S'Generated'
p1996
sS'three-bridge_1214330'
p1997
S'Generated'
p1998
sS'three-bridge_1535748'
p1999
S'Generated'
p2000
sS'two-bridge_893321'
p2001
S'Generated'
p2002
sS'monodentate_44010'
p2003
S'Generated'
p2004
sS'four-bridge_547485'
p2005
S'Generated'
p2006
sS'two-bridge_144348'
p2007
S'Generated'
p2008
sS'three-bridge_57766'
p2009
S'Generated'
p2010
sS'monodentate_610048'
p2011
S'Generated'
p2012
sS'bidentate_1060302'
p2013
S'Generated'
p2014
sS'three-bridge_290925'
p2015
S'Generated'
p2016
sS'two-bridge_278814'
p2017
S'Generated'
p2018
sS'four-bridge_1310291'
p2019
S'Generated'
p2020
sS'two-bridge_285805'
p2021
S'Generated'
p2022
sS'bidentate_50533'
p2023
S'Generated'
p2024
sS'monodentate_1301295'
p2025
S'Generated'
p2026
sS'monodentate_487790'
p2027
S'Generated'
p2028
sS'monodentate_1309466'
p2029
S'Generated'
p2030
sS'monodentate_487796'
p2031
S'Generated'
p2032
sS'bidentate_412684'
p2033
S'Generated'
p2034
sS'monodentate_487795'
p2035
S'Generated'
p2036
sS'three-bridge_1578406'
p2037
S'Generated'
p2038
sS'four-bridge_300973'
p2039
S'Generated'
p2040
sS'two-bridge_102647'
p2041
S'Generated'
p2042
sS'four-bridge_myristate'
p2043
S'Generated'
p2044
sS'four-bridge_1519033'
p2045
S'Generated'
p2046
sS'monodentate_73081'
p2047
S'Generated'
p2048
sS'monodentate_905677'
p2049
S'Generated'
p2050
sS'four-bridge_1276482'
p2051
S'Generated'
p2052
sS'bidentate_12174'
p2053
S'Generated'
p2054
sS'four-bridge_320993'
p2055
S'Generated'
p2056
sS'four-bridge_50411'
p2057
S'Generated'
p2058
sS'three-bridge_644084'
p2059
S'Generated'
p2060
sS'three-bridge_644082'
p2061
S'Generated'
p2062
sS'three-bridge_644083'
p2063
S'Generated'
p2064
sS'bidentate_102901'
p2065
S'Generated'
p2066
sS'three-bridge_12174'
p2067
S'Generated'
p2068
sS'four-bridge_503502'
p2069
S'Generated'
p2070
sS'three-bridge_487659'
p2071
S'Generated'
p2072
sS'two-bridge_412748'
p2073
S'Generated'
p2074
sS'bidentate_834832'
p2075
S'Generated'
p2076
sS'four-bridge_454017'
p2077
S'Generated'
p2078
sS'three-bridge_44010'
p2079
S'Generated'
p2080
sS'bidentate_1148730'
p2081
S'Generated'
p2082
sS'bidentate_251532'
p2083
S'Generated'
p2084
sS'bidentate_412646'
p2085
S'Generated'
p2086
sS'bidentate_412643'
p2087
S'Generated'
p2088
sS'monodentate_695310'
p2089
S'Generated'
p2090
sS'three-bridge_595271'
p2091
S'Generated'
p2092
sS'four-bridge_371690'
p2093
S'Generated'
p2094
sS'monodentate_349236'
p2095
S'Generated'
p2096
sS'two-bridge_644082'
p2097
S'Generated'
p2098
sS'two-bridge_644083'
p2099
S'Generated'
p2100
sS'two-bridge_644084'
p2101
S'Generated'
p2102
sS'two-bridge_13437'
p2103
S'Generated'
p2104
sS'four-bridge_684853'
p2105
S'Generated'
p2106
sS'three-bridge_179756'
p2107
S'Generated'
p2108
sS'four-bridge_1064410'
p2109
S'Generated'
p2110
sS'bidentate_1361170'
p2111
S'Generated'
p2112
sS'two-bridge_601217'
p2113
S'Generated'
p2114
sS'two-bridge_1177604'
p2115
S'Generated'
p2116
sS'three-bridge_506525'
p2117
S'Generated'
p2118
sS'monodentate_506525'
p2119
S'Generated'
p2120
sS'monodentate_1177604'
p2121
S'Generated'
p2122
sS'monodentate_446167'
p2123
S'Generated'
p2124
sS'bidentate_1615266'
p2125
S'Generated'
p2126
sS'bidentate_300973'
p2127
S'Generated'
p2128
sS'monodentate_412393'
p2129
S'Generated'
p2130
sS'bidentate_787058'
p2131
S'Generated'
p2132
sS'monodentate_78243'
p2133
S'Generated'
p2134
sS'monodentate_567198'
p2135
S'Generated'
p2136
sS'monodentate_102647'
p2137
S'Generated'
p2138
sS'bidentate_311525'
p2139
S'Generated'
p2140
sS'monodentate_793766'
p2141
S'Generated'
p2142
sS'bidentate_13450'
p2143
S'Generated'
p2144
sS'four-bridge_576096'
p2145
S'Generated'
p2146
sS'bidentate_895722'
p2147
S'Generated'
p2148
sS'bidentate_181722'
p2149
S'Generated'
p2150
sS'monodentate_benzoate'
p2151
S'Generated'
p2152
sS'monodentate_1590039'
p2153
S'Generated'
p2154
sS'bidentate_70830'
p2155
S'Generated'
p2156
sS'bidentate_945567'
p2157
S'Generated'
p2158
sS'monodentate_199591'
p2159
S'Generated'
p2160
sS'two-bridge_1062475'
p2161
S'Generated'
p2162
sS'two-bridge_1062471'
p2163
S'Generated'
p2164
sS'four-bridge_416684'
p2165
S'Generated'
p2166
sS'monodentate_685374'
p2167
S'Generated'
p2168
sS'monodentate_685372'
p2169
S'Generated'
p2170
sS'monodentate_685373'
p2171
S'Generated'
p2172
sS'four-bridge_577219'
p2173
S'Generated'
p2174
sS'bidentate_178465'
p2175
S'Generated'
p2176
sS'three-bridge_1519033'
p2177
S'Generated'
p2178
sS'monodentate_64576'
p2179
S'Generated'
p2180
sS'two-bridge_544431'
p2181
S'Generated'
p2182
sS'three-bridge_995436'
p2183
S'Generated'
p2184
sS'four-bridge_486263'
p2185
S'Generated'
p2186
sS'bidentate_446167'
p2187
S'Generated'
p2188
sS'four-bridge_651514'
p2189
S'Generated'
p2190
sS'two-bridge_97233'
p2191
S'Generated'
p2192
sS'three-bridge_25168'
p2193
S'Generated'
p2194
sS'monodentate_194535'
p2195
S'Generated'
p2196
sS'two-bridge_953791'
p2197
S'Generated'
p2198
sS'four-bridge_293569'
p2199
S'Generated'
p2200
sS'two-bridge_1314194'
p2201
S'Generated'
p2202
sS'four-bridge_5176'
p2203
S'Generated'
p2204
sS'two-bridge_595271'
p2205
S'Generated'
p2206
sS'four-bridge_253784'
p2207
S'Generated'
p2208
sS'bidentate_471815'
p2209
S'Generated'
p2210
sS'two-bridge_685373'
p2211
S'Generated'
p2212
sS'two-bridge_685372'
p2213
S'Generated'
p2214
sS'bidentate_412393'
p2215
S'Generated'
p2216
sS'two-bridge_1310291'
p2217
S'Generated'
p2218
sS'three-bridge_695310'
p2219
S'Generated'
p2220
sS'bidentate_565046'
p2221
S'Generated'
p2222
sS'four-bridge_1307160'
p2223
S'Generated'
p2224
sS'three-bridge_486263'
p2225
S'Generated'
p2226
sS'monodentate_52791'
p2227
S'Generated'
p2228
sS'four-bridge_487736'
p2229
S'Generated'
p2230
sS'four-bridge_828204'
p2231
S'Generated'
p2232
sS'four-bridge_471815'
p2233
S'Generated'
p2234
sS'three-bridge_13366'
p2235
S'Generated'
p2236
sS'three-bridge_685325'
p2237
S'Generated'
p2238
sS'three-bridge_487796'
p2239
S'Generated'
p2240
sS'three-bridge_487795'
p2241
S'Generated'
p2242
sS'four-bridge_205744'
p2243
S'Generated'
p2244
sS'three-bridge_487790'
p2245
S'Generated'
p2246
sS'bidentate_464583'
p2247
S'Generated'
p2248
sS'monodentate_275326'
p2249
S'Generated'
p2250
sS'monodentate_27222'
p2251
S'Generated'
p2252
sS'monodentate_773281'
p2253
S'Generated'
p2254
sS'two-bridge_1351816'
p2255
S'Generated'
p2256
sS'two-bridge_151281'
p2257
S'Generated'
p2258
sS'four-bridge_409164'
p2259
S'Generated'
p2260
sS'monodentate_329628'
p2261
S'Generated'
p2262
sS'two-bridge_27217'
p2263
S'Generated'
p2264
sS'bidentate_773359'
p2265
S'Generated'
p2266
sS'three-bridge_275578'
p2267
S'Generated'
p2268
sS'two-bridge_765417'
p2269
S'Generated'
p2270
sS'three-bridge_544431'
p2271
S'Generated'
p2272
sS'bidentate_1321032'
p2273
S'Generated'
p2274
sS'two-bridge_237868'
p2275
S'Generated'
p2276
sS'monodentate_58549'
p2277
S'Generated'
p2278
sS'monodentate_685413'
p2279
S'Generated'
p2280
sS'bidentate_1430054'
p2281
S'Generated'
p2282
sS'three-bridge_375583'
p2283
S'Generated'
p2284
sS'three-bridge_27217'
p2285
S'Generated'
p2286
sS'bidentate_1166010'
p2287
S'Generated'
p2288
sS'three-bridge_787058'
p2289
S'Generated'
p2290
sS'bidentate_142536'
p2291
S'Generated'
p2292
sS'three-bridge_46715'
p2293
S'Generated'
p2294
sS'three-bridge_106546'
p2295
S'Generated'
p2296
sS'two-bridge_764859'
p2297
S'Generated'
p2298
sS'two-bridge_181722'
p2299
S'Generated'
p2300
sS'monodentate_97233'
p2301
S'Generated'
p2302
sS'four-bridge_104182'
p2303
S'Generated'
p2304
sS'monodentate_338302'
p2305
S'Generated'
p2306
sS'four-bridge_1383557'
p2307
S'Generated'
p2308
sS'four-bridge_624264'
p2309
S'Generated'
p2310
sS'two-bridge_506525'
p2311
S'Generated'
p2312
sS'monodentate_1166010'
p2313
S'Generated'
p2314
sS'three-bridge_284796'
p2315
S'Generated'
p2316
sS'four-bridge_768348'
p2317
S'Generated'
p2318
sS'four-bridge_576311'
p2319
S'Generated'
p2320
sS'four-bridge_46493'
p2321
S'Generated'
p2322
sS'monodentate_myristate'
p2323
S'Generated'
p2324
sS'three-bridge_264834'
p2325
S'Generated'
p2326
sS'four-bridge_765417'
p2327
S'Generated'
p2328
sS'four-bridge_1296771'
p2329
S'Generated'
p2330
sS'bidentate_390209'
p2331
S'Generated'
p2332
sS'three-bridge_106052'
p2333
S'Generated'
p2334
sS'four-bridge_284796'
p2335
S'Generated'
p2336
sS'monodentate_895722'
p2337
S'Generated'
p2338
sS'monodentate_1094267'
p2339
S'Generated'
p2340
sS'four-bridge_375583'
p2341
S'Generated'
p2342
sS'monodentate_419574'
p2343
S'Generated'
p2344
sS'three-bridge_471815'
p2345
S'Generated'
p2346
sS'two-bridge_1362497'
p2347
S'Generated'
p2348
sS'four-bridge_1297550'
p2349
S'Generated'
p2350
sS'two-bridge_487790'
p2351
S'Generated'
p2352
sS'two-bridge_487796'
p2353
S'Generated'
p2354
sS'two-bridge_487795'
p2355
S'Generated'
p2356
sS'bidentate_376696'
p2357
S'Generated'
p2358
sS'bidentate_992232'
p2359
S'Generated'
p2360
sS'two-bridge_1276482'
p2361
S'Generated'
p2362
sS'two-bridge_823035'
p2363
S'Generated'
p2364
sS'bidentate_651479'
p2365
S'Generated'
p2366
sS'two-bridge_1342409'
p2367
S'Generated'
p2368
sS'monodentate_190756'
p2369
S'Generated'
p2370
sS'two-bridge_48894'
p2371
S'Generated'
p2372
sS'three-bridge_1334253'
p2373
S'Generated'
p2374
sS'four-bridge_1294059'
p2375
S'Generated'
p2376
sS'three-bridge_190756'
p2377
S'Generated'
p2378
sS'bidentate_971287'
p2379
S'Generated'
p2380
sS'monodentate_367240'
p2381
S'Generated'
p2382
sS'two-bridge_995436'
p2383
S'Generated'
p2384
sS'two-bridge_1143956'
p2385
S'Generated'
p2386
sS'three-bridge_1615266'
p2387
S'Generated'
p2388
sS'four-bridge_764859'
p2389
S'Generated'
p2390
sS'two-bridge_226296'
p2391
S'Generated'
p2392
sS'three-bridge_48894'
p2393
S'Generated'
p2394
sS'monodentate_41460'
p2395
S'Generated'
p2396
sS'three-bridge_16656'
p2397
S'Generated'
p2398
sS'bidentate_295850'
p2399
S'Generated'
p2400
sS'four-bridge_179756'
p2401
S'Generated'
p2402
sS'bidentate_1351816'
p2403
S'Generated'
p2404
sS'monodentate_90108'
p2405
S'Generated'
p2406
sS'four-bridge_13342'
p2407
S'Generated'
p2408
sS'three-bridge_695147'
p2409
S'Generated'
p2410
sS'monodentate_664680'
p2411
S'Generated'
p2412
sS'two-bridge_311525'
p2413
S'Generated'
p2414
sS'monodentate_5176'
p2415
S'Generated'
p2416
sS'three-bridge_1177604'
p2417
S'Generated'
p2418
sS'monodentate_290925'
p2419
S'Generated'
p2420
sS'four-bridge_70830'
p2421
S'Generated'
p2422
sS'four-bridge_304416'
p2423
S'Generated'
p2424
sS'two-bridge_320993'
p2425
S'Generated'
p2426
sS'bidentate_9400'
p2427
S'Generated'
p2428
sS'three-bridge_47299'
p2429
S'Generated'
p2430
sS'two-bridge_1594948'
p2431
S'Generated'
p2432
sS'two-bridge_547485'
p2433
S'Generated'
p2434
sS'monodentate_644083'
p2435
S'Generated'
p2436
sS'monodentate_644082'
p2437
S'Generated'
p2438
sS'four-bridge_181722'
p2439
S'Generated'
p2440
sS'monodentate_644084'
p2441
S'Generated'
p2442
sS'two-bridge_27222'
p2443
S'Generated'
p2444
sS'four-bridge_565134'
p2445
S'Generated'
p2446
sS'bidentate_1590039'
p2447
S'Generated'
p2448
sS'monodentate_1078482'
p2449
S'Generated'
p2450
sS'four-bridge_50533'
p2451
S'Generated'
p2452
sS'three-bridge_764859'
p2453
S'Generated'
p2454
sS'monodentate_222089'
p2455
S'Generated'
p2456
sS'two-bridge_acetate'
p2457
S'Generated'
p2458
sS'four-bridge_1320580'
p2459
S'Generated'
p2460
sS'bidentate_40433'
p2461
S'Generated'
p2462
sS'four-bridge_773359'
p2463
S'Generated'
p2464
sS'bidentate_1578406'
p2465
S'Generated'
p2466
sS'four-bridge_311525'
p2467
S'Generated'
p2468
sS'three-bridge_412685'
p2469
S'Generated'
p2470
sS'three-bridge_412684'
p2471
S'Generated'
p2472
sS'three-bridge_461869'
p2473
S'Generated'
p2474
sS'three-bridge_40433'
p2475
S'Generated'
p2476
sS'three-bridge_205744'
p2477
S'Generated'
p2478
sS'monodentate_126728'
p2479
S'Generated'
p2480
sS'three-bridge_1094267'
p2481
S'Generated'
p2482
sS'three-bridge_685452'
p2483
S'Generated'
p2484
sS'three-bridge_685454'
p2485
S'Generated'
p2486
sS'four-bridge_574585'
p2487
S'Generated'
p2488
sS'two-bridge_736963'
p2489
S'Generated'
p2490
sS'monodentate_1323075'
p2491
S'Generated'
p2492
sS'monodentate_1610137'
p2493
S'Generated'
p2494
sS'four-bridge_736963'
p2495
S'Generated'
p2496
sS'three-bridge_1610139'
p2497
S'Generated'
p2498
sS'monodentate_1610139'
p2499
S'Generated'
p2500
sS'two-bridge_1320580'
p2501
S'Generated'
p2502
sS'bidentate_1622195'
p2503
S'Generated'
p2504
sS'bidentate_392156'
p2505
S'Generated'
p2506
sS'three-bridge_272532'
p2507
S'Generated'
p2508
sS'four-bridge_682724'
p2509
S'Generated'
p2510
sS'bidentate_81676'
p2511
S'Generated'
p2512
sS'three-bridge_1301295'
p2513
S'Generated'
p2514
sS'monodentate_63959'
p2515
S'Generated'
p2516
sS'monodentate_22402'
p2517
S'Generated'
p2518
sS'bidentate_367240'
p2519
S'Generated'
p2520
sS'two-bridge_419574'
p2521
S'Generated'
p2522
sS'monodentate_392156'
p2523
S'Generated'
p2524
sS'monodentate_896353'
p2525
S'Generated'
p2526
sS'four-bridge_193314'
p2527
S'Generated'
p2528
sS'bidentate_226296'
p2529
S'Generated'
p2530
sS'two-bridge_46715'
p2531
S'Generated'
p2532
sS'three-bridge_896353'
p2533
S'Generated'
p2534
sS'two-bridge_178465'
p2535
S'Generated'
p2536
sS'bidentate_1078482'
p2537
S'Generated'
p2538
sS'two-bridge_392156'
p2539
S'Generated'
p2540
sS'two-bridge_545637'
p2541
S'Generated'
p2542
sS'four-bridge_33807'
p2543
S'Generated'
p2544
sS'monodentate_1430054'
p2545
S'Generated'
p2546
sS'three-bridge_183464'
p2547
S'Generated'
p2548
sS'monodentate_1321032'
p2549
S'Generated'
p2550
sS'two-bridge_5176'
p2551
S'Generated'
p2552
sS'bidentate_503502'
p2553
S'Generated'
p2554
sS'four-bridge_1384710'
p2555
S'Generated'
p2556
sS'monodentate_834832'
p2557
S'Generated'
p2558
sS'four-bridge_46715'
p2559
S'Generated'
p2560
sS'monodentate_106052'
p2561
S'Generated'
p2562
sS'bidentate_1422632'
p2563
S'Generated'
p2564
sS'two-bridge_471815'
p2565
S'Generated'
p2566
sS'three-bridge_142536'
p2567
S'Generated'
p2568
sS'monodentate_992232'
p2569
S'Generated'
p2570
sS'monodentate_499823'
p2571
S'Generated'
p2572
sS'monodentate_1361170'
p2573
S'Generated'
p2574
sS'three-bridge_684853'
p2575
S'Generated'
p2576
sS'two-bridge_624264'
p2577
S'Generated'
p2578
sS'monodentate_364873'
p2579
S'Generated'
p2580
sS'four-bridge_412729'
p2581
S'Generated'
p2582
sS'two-bridge_1488432'
p2583
S'Generated'
p2584
sS'four-bridge_102901'
p2585
S'Generated'
p2586
sS'four-bridge_13353'
p2587
S'Generated'
p2588
sS'three-bridge_367240'
p2589
S'Generated'
p2590
sS'bidentate_89389'
p2591
S'Generated'
p2592
sS'three-bridge_251532'
p2593
S'Generated'
p2594
sS'three-bridge_1307160'
p2595
S'Generated'
p2596
sS'two-bridge_1309466'
p2597
S'Generated'
p2598
sS'three-bridge_1347251'
p2599
S'Generated'
p2600
sS'bidentate_356430'
p2601
S'Generated'
p2602
sS'bidentate_411502'
p2603
S'Generated'
p2604
sS'three-bridge_5176'
p2605
S'Generated'
p2606
sS'two-bridge_50411'
p2607
S'Generated'
p2608
sS'bidentate_13366'
p2609
S'Generated'
p2610
sS'four-bridge_12174'
p2611
S'Generated'
p2612
sS'bidentate_251981'
p2613
S'Generated'
p2614
sS'three-bridge_64576'
p2615
S'Generated'
p2616
sS'bidentate_9413'
p2617
S'Generated'
p2618
sS'monodentate_81676'
p2619
S'Generated'
p2620
sS'four-bridge_1378776'
p2621
S'Generated'
p2622
sS'four-bridge_73898'
p2623
S'Generated'
p2624
sS'three-bridge_104182'
p2625
S'Generated'
p2626
sS'monodentate_195642'
p2627
S'Generated'
p2628
sS'three-bridge_311525'
p2629
S'Generated'
p2630
sS'bidentate_179756'
p2631
S'Generated'
p2632
sS'monodentate_1173483'
p2633
S'Generated'
p2634
sS'three-bridge_386850'
p2635
S'Generated'
p2636
sS'bidentate_1173483'
p2637
S'Generated'
p2638
sS'bidentate_1322898'
p2639
S'Generated'
p2640
sS'monodentate_388035'
p2641
S'Generated'
p2642
sS'monodentate_302219'
p2643
S'Generated'
p2644
sS'three-bridge_benzoate'
p2645
g376
sS'three-bridge_278814'
p2646
S'Generated'
p2647
sS'bidentate_412636'
p2648
S'Generated'
p2649
sS'bidentate_629648'
p2650
S'Generated'
p2651
sS'monodentate_893321'
p2652
S'Generated'
p2653
sS'two-bridge_432484'
p2654
S'Generated'
p2655
sS'monodentate_1319399'
p2656
S'Generated'
p2657
sS'bidentate_412638'
p2658
S'Generated'
p2659
sS'monodentate_164354'
p2660
S'Generated'
p2661
sS'four-bridge_1356323'
p2662
S'Generated'
p2663
sS'four-bridge_1214330'
p2664
S'Generated'
p2665
sS'four-bridge_1351816'
p2666
S'Generated'
p2667
sS'two-bridge_388035'
p2668
S'Generated'
p2669
sS'bidentate_1535748'
p2670
S'Generated'
p2671
sS'bidentate_1323075'
p2672
S'Generated'
p2673
sS'bidentate_576096'
p2674
S'Generated'
p2675
sS'three-bridge_1422632'
p2676
S'Generated'
p2677
sS'monodentate_126240'
p2678
S'Generated'
p2679
sS'two-bridge_768348'
p2680
S'Generated'
p2681
sS'bidentate_695310'
p2682
S'Generated'
p2683
sS'bidentate_685454'
p2684
S'Generated'
p2685
sS'four-bridge_971486'
p2686
S'Generated'
p2687
sS'three-bridge_126240'
p2688
S'Generated'
p2689
sS'bidentate_361610'
p2690
S'Generated'
p2691
sS'bidentate_685452'
p2692
S'Generated'
p2693
sS'three-bridge_1488432'
p2694
S'Generated'
p2695
sS'monodentate_972989'
p2696
S'Generated'
p2697
sS'four-bridge_464583'
p2698
S'Generated'
p2699
sS'three-bridge_412748'
p2700
S'Generated'
p2701
sS'two-bridge_284796'
p2702
S'Generated'
p2703
sS'four-bridge_1342409'
p2704
S'Generated'
p2705
sS'four-bridge_16656'
p2706
S'Generated'
p2707
sS'monodentate_287700'
p2708
S'Generated'
p2709
sS'bidentate_1294059'
p2710
S'Generated'
p2711
sS'four-bridge_1362497'
p2712
S'Generated'
p2713
sS'two-bridge_190756'
p2714
S'Generated'
p2715
sS'two-bridge_46493'
p2716
S'Generated'
p2717
sS'bidentate_287700'
p2718
S'Generated'
p2719
sS'bidentate_73898'
p2720
S'Generated'
p2721
sS'three-bridge_762323'
p2722
S'Generated'
p2723
sS'two-bridge_73898'
p2724
S'Generated'
p2725
sS'two-bridge_1307160'
p2726
S'Generated'
p2727
sS'four-bridge_386850'
p2728
S'Generated'
p2729
sS'three-bridge_371690'
p2730
S'Generated'
p2731
sS'three-bridge_113187'
p2732
S'Generated'
p2733
sS'monodentate_216121'
p2734
S'Generated'
p2735
sS'three-bridge_411502'
p2736
S'Generated'
p2737
sS'two-bridge_52791'
p2738
S'Generated'
p2739
sS'three-bridge_1314194'
p2740
S'Generated'
p2741
sS'four-bridge_113187'
p2742
S'Generated'
p2743
sS'monodentate_787058'
p2744
S'Generated'
p2745
sS'three-bridge_1173483'
p2746
S'Generated'
p2747
sS'monodentate_198761'
p2748
S'Generated'
p2749
sS'bidentate_468418'
p2750
S'Generated'
p2751
sS'three-bridge_651479'
p2752
S'Generated'
p2753
sS'two-bridge_40433'
p2754
S'Generated'
p2755
sS'bidentate_1315661'
p2756
S'Generated'
p2757
sS'bidentate_211864'
p2758
S'Generated'
p2759
sS'monodentate_412638'
p2760
S'Generated'
p2761
sS'bidentate_1088304'
p2762
S'Generated'
p2763
sS'bidentate_409164'
p2764
S'Generated'
p2765
sS'monodentate_412636'
p2766
S'Generated'
p2767
sS'three-bridge_253784'
p2768
S'Generated'
p2769
sS'monodentate_412748'
p2770
S'Generated'
p2771
sS'bidentate_682724'
p2772
S'Generated'
p2773
sS'bidentate_52791'
p2774
S'Generated'
p2775
sS'bidentate_1296771'
p2776
S'Generated'
p2777
sS'four-bridge_106546'
p2778
S'Generated'
p2779
sS'two-bridge_412685'
p2780
S'Generated'
p2781
sS'two-bridge_412684'
p2782
S'Generated'
p2783
sS'three-bridge_294428'
p2784
S'Generated'
p2785
sS'bidentate_461869'
p2786
S'Generated'
p2787
sS'monodentate_593471'
p2788
S'Generated'
p2789
sS'two-bridge_73081'
p2790
S'Generated'
p2791
sS'two-bridge_183464'
p2792
S'Generated'
p2793
sS'two-bridge_1578406'
p2794
S'Generated'
p2795
sS'four-bridge_13366'
p2796
S'Generated'
p2797
sS'bidentate_1301295'
p2798
S'Generated'
p2799
sS'four-bridge_47299'
p2800
S'Generated'
p2801
sS'bidentate_46493'
p2802
S'Generated'
p2803
sS'two-bridge_253784'
p2804
S'Generated'
p2805
sS'four-bridge_237868'
p2806
S'Generated'
p2807
sS'bidentate_595271'
p2808
S'Generated'
p2809
sS'four-bridge_102647'
p2810
S'Generated'
p2811
sS'four-bridge_44010'
p2812
S'Generated'
p2813
sS'monodentate_264834'
p2814
S'Generated'
p2815
sS'three-bridge_102901'
p2816
S'Generated'
p2817
sS'two-bridge_567294'
p2818
S'Generated'
p2819
sS'bidentate_695147'
p2820
S'Generated'
p2821
sS'monodentate_278814'
p2822
S'Generated'
p2823
sS'monodentate_1361187'
p2824
S'Generated'
p2825
sS'bidentate_302219'
p2826
S'Generated'
p2827
sS'monodentate_376696'
p2828
S'Generated'
p2829
sS'monodentate_272532'
p2830
S'Generated'
p2831
sS'four-bridge_1615266'
p2832
S'Generated'
p2833
sS'three-bridge_1276482'
p2834
S'Generated'
p2835
s.