(dp0
S'bidentate_benzoate'
p1
S'Generated'
p2
sS'three-bridge_benzoate'
p3
g2
sS'bidentate_1120909'
p4
S'Generated'
p5
sS'bidentate_133379'
p6
S'Generated'
p7
sS'two-bridge_benzoate'
p8
g2
sS'bidentate_1082323'
p9
S'Generated'
p10
sS'bidentate_1120256'
p11
S'Generated'
p12
sS'four-bridge_benzoate'
p13
g2
sS'bidentate_892587'
p14
S'Generated'
p15
sS'monodentate_benzoate'
p16
S'Generated'
p17
s.